(lp0
(lp1
F0.1250305324792862
aF0.1250305324792862
aF-0.3829059898853302
aF-0.47667887806892395
aF-0.48058608174324036
aF-0.48058608174324036
aF-0.48058608174324036
aF-0.48058608174324036
aF-0.4415140450000763
aF-0.48058608174324036
aF-0.28913310170173645
aF-0.46886447072029114
aF-0.34383395314216614
aF-0.15238095819950104
aF-0.27741149067878723
aF0.07032967358827591
aF-0.14456655085086823
aF0.34383395314216614
aF-0.16800977289676666
aF0.27741149067878723
aF-0.015628816559910774
aF-0.015628816559910774
aF0.3829059898853302
aF-0.035164836794137955
aF0.42197802662849426
aF0.0039072041399776936
aF0.34774115681648254
aF0.2695970833301544
aF0.21489621698856354
aF0.21489621698856354
aF0.12112332135438919
aF0.3829059898853302
aF0.12112332135438919
aF0.15628816187381744
aF0.265689879655838
aF0.1367521435022354
aF0.17973138391971588
aF0.1875457912683487
aF0.16800977289676666
aF0.16410256922245026
aF0.10158730298280716
aF0.23443223536014557
aF0.03907204046845436
aF0.1992674022912979
aF0.027350427582859993
aF0.21489621698856354
aF0.0625152662396431
aF0.027350427582859993
aF0.1289377361536026
aF0.08595848828554153
aF0.08595848828554153
aF0.0625152662396431
aF0.11330891400575638
aF0.023443223908543587
aF0.08986569195985794
aF0.01953602023422718
aF0.027350427582859993
aF0.04688644781708717
aF0.011721611954271793
aF0.01953602023422718
aF0.0625152662396431
aF0.007814408279955387
aF0.054700855165719986
aF0.0039072041399776936
aF0.08205128461122513
aF-0.023443223908543587
aF0.035164836794137955
aF0.054700855165719986
aF-0.01953602023422718
aF0.035164836794137955
aF-0.054700855165719986
aF0.09768009930849075
aF-0.023443223908543587
aF0.05079365149140358
aF0.015628816559910774
aF0.04297924414277077
aF0.03907204046845436
aF-0.01953602023422718
aF0.03907204046845436
aF-0.035164836794137955
aF0.0625152662396431
aF0.0039072041399776936
aF-0.04297924414277077
aF0.03125763311982155
aF0.015628816559910774
aF0.01953602023422718
aF0.011721611954271793
aF0.015628816559910774
aF0.035164836794137955
aF0.03125763311982155
aF0.03125763311982155
aF0.07814408093690872
aF0.007814408279955387
aF0.0039072041399776936
aF0.007814408279955387
aF-0.0039072041399776936
aF0.03125763311982155
aF-0.027350427582859993
aF0.05079365149140358
aF-0.03125763311982155
aF0.027350427582859993
aF0.0039072041399776936
aF-0.0039072041399776936
aF0.011721611954271793
aF-0.015628816559910774
aF0.011721611954271793
aF-0.04297924414277077
aF-0.01953602023422718
aF-0.023443223908543587
aF0.0
aF0.0
aF-0.01953602023422718
aF-0.0039072041399776936
aF0.015628816559910774
aF-0.035164836794137955
aF-0.011721611954271793
aF0.03907204046845436
aF-0.04688644781708717
aF0.04297924414277077
aF-0.04297924414277077
aF0.0
aF0.015628816559910774
aF-0.027350427582859993
aF0.01953602023422718
aF-0.01953602023422718
aF0.04297924414277077
aF0.0039072041399776936
aF0.015628816559910774
aF0.0039072041399776936
aF0.0
aF0.05079365149140358
aF-0.054700855165719986
aF0.07423687726259232
aF-0.011721611954271793
aF-0.011721611954271793
aF-0.0039072041399776936
aF0.0039072041399776936
aF0.035164836794137955
aF-0.04297924414277077
aF0.023443223908543587
aF0.023443223908543587
aF-0.023443223908543587
aF0.011721611954271793
aF-0.0039072041399776936
aF0.0
aF-0.0039072041399776936
aF-0.01953602023422718
aF-0.0039072041399776936
aF-0.01953602023422718
aF-0.015628816559910774
aF0.011721611954271793
aF-0.015628816559910774
aF0.015628816559910774
aF-0.027350427582859993
aF0.023443223908543587
aF0.007814408279955387
aF-0.01953602023422718
aF0.007814408279955387
aF0.007814408279955387
aF0.015628816559910774
aF-0.011721611954271793
aF0.023443223908543587
aF-0.05079365149140358
aF0.0039072041399776936
aF0.03125763311982155
aF-0.03907204046845436
aF0.04688644781708717
aF-0.035164836794137955
aF0.027350427582859993
aF-0.011721611954271793
aF0.0039072041399776936
aF0.007814408279955387
aF-0.015628816559910774
aF0.023443223908543587
aF-0.015628816559910774
aF0.01953602023422718
aF-0.023443223908543587
aF0.023443223908543587
aF-0.0039072041399776936
aF0.007814408279955387
aF-0.04297924414277077
aF0.03907204046845436
aF0.03907204046845436
aF-0.03907204046845436
aF0.035164836794137955
aF-0.027350427582859993
aF0.03907204046845436
aF-0.007814408279955387
aF-0.007814408279955387
aF0.015628816559910774
aF-0.035164836794137955
aF0.03907204046845436
aF-0.04688644781708717
aF0.007814408279955387
aF0.0
aF0.015628816559910774
aF-0.023443223908543587
aF-0.023443223908543587
aF0.015628816559910774
aF-0.035164836794137955
aF0.011721611954271793
aF-0.015628816559910774
aF0.0
aF-0.0039072041399776936
aF0.015628816559910774
aF-0.05079365149140358
aF0.03125763311982155
aF0.03125763311982155
aF-0.011721611954271793
aF0.011721611954271793
aF-0.035164836794137955
aF0.03907204046845436
aF-0.054700855165719986
aF0.035164836794137955
aF-0.0039072041399776936
aF-0.007814408279955387
aF-0.0039072041399776936
aF-0.05079365149140358
aF0.027350427582859993
aF-0.023443223908543587
aF0.011721611954271793
aF-0.023443223908543587
aF-0.023443223908543587
aF-0.011721611954271793
aF-0.007814408279955387
aF0.007814408279955387
aF-0.023443223908543587
aF0.01953602023422718
aF0.01953602023422718
aF-0.023443223908543587
aF0.011721611954271793
aF0.027350427582859993
aF-0.023443223908543587
aF-0.0039072041399776936
aF0.011721611954271793
aF0.0
aF-0.035164836794137955
aF-0.035164836794137955
aF0.04688644781708717
aF-0.054700855165719986
aF0.03907204046845436
aF-0.03125763311982155
aF-0.007814408279955387
aF0.023443223908543587
aF-0.01953602023422718
aF0.015628816559910774
aF-0.035164836794137955
aF-0.035164836794137955
aF-0.015628816559910774
aF-0.0039072041399776936
aF-0.01953602023422718
aF0.0039072041399776936
aF-0.007814408279955387
aF-0.023443223908543587
aF-0.023443223908543587
aF0.007814408279955387
aF-0.03125763311982155
aF-0.023443223908543587
aF0.035164836794137955
aF-0.03125763311982155
aF0.015628816559910774
aF-0.01953602023422718
aF-0.01953602023422718
aF-0.05079365149140358
aF-0.0039072041399776936
aF0.007814408279955387
aF-0.035164836794137955
aF-0.015628816559910774
aF-0.015628816559910774
aF0.01953602023422718
aF-0.023443223908543587
aF0.03125763311982155
aF0.007814408279955387
aF-0.03125763311982155
aF0.03125763311982155
aF-0.035164836794137955
aF0.03907204046845436
aF0.03907204046845436
aF-0.03125763311982155
aF0.027350427582859993
aF-0.0039072041399776936
aF-0.0039072041399776936
aF-0.0039072041399776936
aF0.0
aF0.007814408279955387
aF-0.027350427582859993
aF-0.0039072041399776936
aF-0.0039072041399776936
aF-0.03125763311982155
aF0.023443223908543587
aF-0.04297924414277077
aF0.035164836794137955
aF0.011721611954271793
aF-0.04688644781708717
aF0.03907204046845436
aF-0.03125763311982155
aF0.015628816559910774
aF-0.01953602023422718
aF0.0
aF0.0
aF-0.035164836794137955
aF-0.035164836794137955
aF-0.01953602023422718
aF-0.05079365149140358
aF0.023443223908543587
aF0.007814408279955387
aF-0.023443223908543587
aF-0.015628816559910774
aF0.0
aF0.01953602023422718
aF-0.05079365149140358
aF-0.007814408279955387
aF0.05079365149140358
aF-0.054700855165719986
aF0.04297924414277077
aF-0.03907204046845436
aF-0.007814408279955387
aF0.011721611954271793
aF-0.01953602023422718
aF0.015628816559910774
aF-0.03125763311982155
aF0.035164836794137955
aF-0.007814408279955387
aF0.0
aF-0.01953602023422718
aF0.04297924414277077
aF0.01953602023422718
aF-0.04688644781708717
aF0.035164836794137955
aF-0.01953602023422718
aF-0.01953602023422718
aF0.0039072041399776936
aF0.0039072041399776936
aF-0.015628816559910774
aF0.007814408279955387
aF-0.015628816559910774
aF0.011721611954271793
aF-0.007814408279955387
aF-0.007814408279955387
aF0.023443223908543587
aF-0.04688644781708717
aF0.007814408279955387
aF-0.007814408279955387
aF-0.007814408279955387
aF-0.015628816559910774
aF-0.01953602023422718
aF0.03907204046845436
aF-0.035164836794137955
aF0.023443223908543587
aF-0.027350427582859993
aF0.023443223908543587
aF0.011721611954271793
aF-0.07423687726259232
aF0.04688644781708717
aF0.04688644781708717
aF0.0
aF-0.007814408279955387
aF0.011721611954271793
aF0.007814408279955387
aF-0.023443223908543587
aF0.007814408279955387
aF0.0
aF-0.011721611954271793
aF0.0039072041399776936
aF-0.01953602023422718
aF-0.0039072041399776936
aF0.01953602023422718
aF-0.023443223908543587
aF0.015628816559910774
aF-0.01953602023422718
aF0.007814408279955387
aF0.007814408279955387
aF-0.01953602023422718
aF0.011721611954271793
aF0.011721611954271793
aF0.03907204046845436
aF-0.027350427582859993
aF0.015628816559910774
aF-0.0039072041399776936
aF0.01953602023422718
aF0.01953602023422718
aF-0.01953602023422718
aF0.023443223908543587
aF-0.03907204046845436
aF-0.015628816559910774
aF0.03125763311982155
aF-0.03125763311982155
aF0.015628816559910774
aF-0.007814408279955387
aF-0.007814408279955387
aF-0.015628816559910774
aF-0.0039072041399776936
aF0.0039072041399776936
aF0.0
aF-0.011721611954271793
aF-0.0039072041399776936
aF-0.007814408279955387
aF0.0
aF-0.027350427582859993
aF-0.027350427582859993
aF0.011721611954271793
aF-0.0664224699139595
aF0.04688644781708717
aF-0.023443223908543587
aF0.0039072041399776936
aF0.011721611954271793
aF-0.027350427582859993
aF0.027350427582859993
aF-0.03907204046845436
aF0.03907204046845436
aF-0.0039072041399776936
aF-0.007814408279955387
aF0.011721611954271793
aF0.011721611954271793
aF0.027350427582859993
aF-0.011721611954271793
aF0.0
aF-0.015628816559910774
aF0.007814408279955387
aF0.007814408279955387
aF-0.015628816559910774
aF0.0039072041399776936
aF0.0039072041399776936
aF0.0039072041399776936
aF0.023443223908543587
aF0.0
aF-0.015628816559910774
aF0.011721611954271793
aF-0.023443223908543587
aF0.023443223908543587
aF-0.01953602023422718
aF0.023443223908543587
aF-0.03907204046845436
aF-0.011721611954271793
aF0.035164836794137955
aF-0.04297924414277077
aF0.03907204046845436
aF-0.054700855165719986
aF-0.054700855165719986
aF-0.015628816559910774
aF-0.015628816559910774
aF0.0039072041399776936
aF-0.0039072041399776936
aF-0.03125763311982155
aF-0.03125763311982155
aF0.023443223908543587
aF-0.015628816559910774
aF-0.0039072041399776936
aF0.007814408279955387
aF0.01953602023422718
aF-0.05079365149140358
aF0.015628816559910774
aF0.0
aF-0.01953602023422718
aF0.011721611954271793
aF-0.007814408279955387
aF0.011721611954271793
aF-0.027350427582859993
aF0.035164836794137955
aF-0.007814408279955387
aF0.0039072041399776936
aF-0.011721611954271793
aF-0.011721611954271793
aF0.04688644781708717
aF-0.04688644781708717
aF0.023443223908543587
aF-0.007814408279955387
aF-0.023443223908543587
aF0.007814408279955387
aF-0.011721611954271793
aF0.015628816559910774
aF-0.03907204046845436
aF0.023443223908543587
aF0.03125763311982155
aF-0.03125763311982155
aF0.0
aF0.011721611954271793
aF-0.015628816559910774
aF-0.027350427582859993
aF0.01953602023422718
aF-0.007814408279955387
aF-0.015628816559910774
aF-0.027350427582859993
aF0.03125763311982155
aF-0.05079365149140358
aF0.03907204046845436
aF-0.03125763311982155
aF-0.035164836794137955
aF0.035164836794137955
aF-0.023443223908543587
aF0.023443223908543587
aF-0.03907204046845436
aF0.01953602023422718
aF0.011721611954271793
aF-0.01953602023422718
aF0.007814408279955387
aF-0.023443223908543587
aF0.0039072041399776936
aF-0.011721611954271793
aF0.027350427582859993
aF-0.011721611954271793
aF-0.011721611954271793
aF-0.0039072041399776936
aF0.0
aF-0.007814408279955387
aF-0.015628816559910774
aF0.027350427582859993
aF0.0039072041399776936
aF-0.015628816559910774
aF0.027350427582859993
aF-0.023443223908543587
aF-0.023443223908543587
aF0.0039072041399776936
aF0.0
aF-0.0039072041399776936
aF-0.011721611954271793
aF0.0039072041399776936
aF0.007814408279955387
aF-0.01953602023422718
aF0.01953602023422718
aF-0.015628816559910774
aF-0.027350427582859993
aF0.03125763311982155
aF-0.011721611954271793
aF-0.05079365149140358
aF0.011721611954271793
aF0.011721611954271793
aF-0.03125763311982155
aF0.0
aF0.0039072041399776936
aF-0.0039072041399776936
aF-0.007814408279955387
aF-0.007814408279955387
aF0.0
aF0.0
aF-0.011721611954271793
aF0.011721611954271793
aF0.0039072041399776936
aF-0.01953602023422718
aF0.01953602023422718
aF-0.023443223908543587
aF-0.023443223908543587
aF0.0
aF-0.007814408279955387
aF0.011721611954271793
aF-0.035164836794137955
aF0.035164836794137955
aF0.011721611954271793
aF-0.05079365149140358
aF-0.05079365149140358
aF0.0039072041399776936
aF0.011721611954271793
aF-0.011721611954271793
aF0.0039072041399776936
aF-0.05079365149140358
aF0.03907204046845436
aF-0.03907204046845436
aF0.015628816559910774
aF-0.011721611954271793
aF-0.03907204046845436
aF0.03125763311982155
aF-0.03125763311982155
aF0.035164836794137955
aF-0.027350427582859993
aF-0.011721611954271793
aF-0.007814408279955387
aF0.01953602023422718
aF-0.011721611954271793
aF-0.07032967358827591
aF0.04297924414277077
aF-0.015628816559910774
aF-0.007814408279955387
aF0.011721611954271793
aF0.0
aF0.0
aF-0.03125763311982155
aF0.03907204046845436
aF0.03907204046845436
aF-0.0039072041399776936
aF0.05079365149140358
aF-0.05860805884003639
aF0.05079365149140358
aF-0.04297924414277077
aF0.015628816559910774
aF-0.03907204046845436
aF0.03125763311982155
aF-0.035164836794137955
aF-0.023443223908543587
aF0.035164836794137955
aF-0.027350427582859993
aF0.011721611954271793
aF0.011721611954271793
aF0.054700855165719986
aF-0.08205128461122513
aF0.07423687726259232
aF-0.07423687726259232
aF0.03907204046845436
aF0.0
aF0.015628816559910774
aF-0.054700855165719986
aF0.04297924414277077
aF0.05079365149140358
aF-0.08205128461122513
aF0.08595848828554153
aF-0.07814408093690872
aF-0.07814408093690872
aF-0.05860805884003639
aF0.007814408279955387
aF-0.023443223908543587
aF0.015628816559910774
aF0.015628816559910774
aF-0.035164836794137955
aF0.023443223908543587
aF-0.011721611954271793
aF-0.0039072041399776936
aF-0.03907204046845436
aF0.054700855165719986
aF-0.0625152662396431
aF0.04297924414277077
aF-0.015628816559910774
aF0.0039072041399776936
aF-0.023443223908543587
aF0.023443223908543587
aF-0.027350427582859993
aF-0.01953602023422718
aF0.015628816559910774
aF0.007814408279955387
aF-0.023443223908543587
aF0.035164836794137955
aF-0.011721611954271793
aF-0.03125763311982155
aF0.015628816559910774
aF-0.023443223908543587
aF0.015628816559910774
aF-0.0625152662396431
aF0.054700855165719986
aF-0.0625152662396431
aF0.054700855165719986
aF0.054700855165719986
aF0.007814408279955387
aF0.007814408279955387
aF0.0
aF-0.054700855165719986
aF-0.01953602023422718
aF0.0625152662396431
aF-0.054700855165719986
aF0.03125763311982155
aF-0.03125763311982155
aF0.03907204046845436
aF-0.023443223908543587
aF-0.0039072041399776936
aF0.015628816559910774
aF-0.011721611954271793
aF0.01953602023422718
aF-0.01953602023422718
aF0.011721611954271793
aF-0.011721611954271793
aF-0.027350427582859993
aF0.023443223908543587
aF-0.01953602023422718
aF0.0039072041399776936
aF-0.0039072041399776936
aF-0.015628816559910774
aF0.023443223908543587
aF-0.04688644781708717
aF0.04297924414277077
aF0.04297924414277077
aF-0.035164836794137955
aF0.023443223908543587
aF0.015628816559910774
aF-0.03125763311982155
aF-0.011721611954271793
aF0.035164836794137955
aF-0.0039072041399776936
aF-0.01953602023422718
aF0.011721611954271793
aF0.011721611954271793
aF-0.05079365149140358
aF0.054700855165719986
aF-0.04688644781708717
aF0.04688644781708717
aF-0.007814408279955387
aF-0.03125763311982155
aF0.03125763311982155
aF-0.04297924414277077
aF0.01953602023422718
aF-0.015628816559910774
aF-0.0039072041399776936
aF-0.027350427582859993
aF-0.0039072041399776936
aF0.015628816559910774
aF-0.007814408279955387
aF-0.04297924414277077
aF0.03907204046845436
aF-0.015628816559910774
aF-0.023443223908543587
aF0.011721611954271793
aF-0.015628816559910774
aF0.011721611954271793
aF-0.027350427582859993
aF-0.011721611954271793
aF0.027350427582859993
aF-0.04297924414277077
aF0.04688644781708717
aF-0.054700855165719986
aF-0.007814408279955387
aF0.023443223908543587
aF-0.03125763311982155
aF0.0
aF-0.01953602023422718
aF0.035164836794137955
aF-0.03125763311982155
aF0.023443223908543587
aF-0.015628816559910774
aF0.0
aF0.01953602023422718
aF-0.0039072041399776936
aF-0.011721611954271793
aF-0.007814408279955387
aF0.011721611954271793
aF-0.01953602023422718
aF0.015628816559910774
aF-0.01953602023422718
aF0.015628816559910774
aF-0.027350427582859993
aF0.015628816559910774
aF0.0039072041399776936
aF-0.007814408279955387
aF-0.0039072041399776936
aF-0.03125763311982155
aF0.027350427582859993
aF-0.027350427582859993
aF0.011721611954271793
aF-0.011721611954271793
aF-0.03125763311982155
aF0.023443223908543587
aF-0.015628816559910774
aF0.027350427582859993
aF0.027350427582859993
aF-0.0039072041399776936
aF0.035164836794137955
aF-0.03907204046845436
aF0.01953602023422718
aF0.0
aF0.0
aF-0.01953602023422718
aF0.027350427582859993
aF-0.023443223908543587
aF0.015628816559910774
aF-0.04297924414277077
aa.