(lp0
(lp1
F0.15238095819950104
aF0.15238095819950104
aF-0.3868131935596466
aF-0.47667887806892395
aF-0.48058608174324036
aF-0.48058608174324036
aF-0.46886447072029114
aF-0.46886447072029114
aF-0.48058608174324036
aF-0.4493284523487091
aF-0.48058608174324036
aF-0.3360195457935333
aF-0.46886447072029114
aF-0.15238095819950104
aF-0.3985348045825958
aF0.14847375452518463
aF-0.2617826759815216
aF-0.023443223908543587
aF0.3868131935596466
aF-0.07814408093690872
aF0.4376068413257599
aF0.4376068413257599
aF0.40244200825691223
aF0.3164835274219513
aF0.30085471272468567
aF0.28522589802742004
aF0.14456655085086823
aF0.40244200825691223
aF0.1992674022912979
aF0.35555556416511536
aF0.1875457912683487
aF0.14847375452518463
aF0.35946276783943176
aF0.16019536554813385
aF0.27741149067878723
aF0.23052503168582916
aF0.14847375452518463
aF0.29304030537605286
aF0.11330891400575638
aF0.3282051384449005
aF0.023443223908543587
aF0.21489621698856354
aF0.22271062433719635
aF0.10158730298280716
aF0.10549450665712357
aF0.14065934717655182
aF0.2617826759815216
aF0.0
aF0.17582418024539948
aF0.04688644781708717
aF0.04688644781708717
aF0.03125763311982155
aF0.10158730298280716
aF0.08595848828554153
aF0.054700855165719986
aF0.07814408093690872
aF0.027350427582859993
aF0.04297924414277077
aF0.04297924414277077
aF0.0625152662396431
aF0.015628816559910774
aF0.07423687726259232
aF0.027350427582859993
aF0.05860805884003639
aF0.011721611954271793
aF0.054700855165719986
aF0.011721611954271793
aF0.0625152662396431
aF0.0
aF0.01953602023422718
aF-0.0039072041399776936
aF-0.04297924414277077
aF0.03125763311982155
aF0.0
aF0.027350427582859993
aF0.0625152662396431
aF-0.011721611954271793
aF0.04688644781708717
aF0.0
aF0.023443223908543587
aF0.0
aF-0.027350427582859993
aF0.04297924414277077
aF-0.03907204046845436
aF0.023443223908543587
aF0.0039072041399776936
aF0.027350427582859993
aF0.01953602023422718
aF0.04297924414277077
aF0.011721611954271793
aF0.011721611954271793
aF0.04688644781708717
aF0.015628816559910774
aF0.0
aF0.01953602023422718
aF0.015628816559910774
aF-0.023443223908543587
aF0.035164836794137955
aF-0.0039072041399776936
aF0.0
aF0.01953602023422718
aF-0.027350427582859993
aF0.01953602023422718
aF-0.0039072041399776936
aF0.0039072041399776936
aF-0.0039072041399776936
aF-0.01953602023422718
aF-0.007814408279955387
aF-0.0039072041399776936
aF-0.011721611954271793
aF-0.011721611954271793
aF-0.023443223908543587
aF-0.011721611954271793
aF-0.0039072041399776936
aF-0.0039072041399776936
aF0.0039072041399776936
aF0.023443223908543587
aF0.0
aF-0.023443223908543587
aF0.01953602023422718
aF0.011721611954271793
aF-0.03125763311982155
aF0.011721611954271793
aF-0.015628816559910774
aF0.035164836794137955
aF-0.023443223908543587
aF-0.007814408279955387
aF0.035164836794137955
aF-0.015628816559910774
aF0.05860805884003639
aF0.0
aF0.023443223908543587
aF0.0
aF0.023443223908543587
aF0.023443223908543587
aF-0.011721611954271793
aF0.027350427582859993
aF-0.011721611954271793
aF0.01953602023422718
aF0.007814408279955387
aF0.007814408279955387
aF-0.0039072041399776936
aF-0.023443223908543587
aF0.01953602023422718
aF-0.007814408279955387
aF-0.0039072041399776936
aF-0.011721611954271793
aF0.0039072041399776936
aF-0.04297924414277077
aF-0.0039072041399776936
aF0.023443223908543587
aF-0.03907204046845436
aF0.015628816559910774
aF-0.0039072041399776936
aF-0.01953602023422718
aF0.0
aF0.0
aF-0.0039072041399776936
aF-0.0039072041399776936
aF-0.011721611954271793
aF0.011721611954271793
aF-0.03125763311982155
aF0.0039072041399776936
aF0.01953602023422718
aF-0.03125763311982155
aF0.04297924414277077
aF-0.0625152662396431
aF0.05860805884003639
aF0.01953602023422718
aF-0.03907204046845436
aF0.01953602023422718
aF0.015628816559910774
aF-0.05079365149140358
aF-0.0039072041399776936
aF0.0625152662396431
aF-0.0664224699139595
aF0.054700855165719986
aF-0.035164836794137955
aF0.0
aF0.023443223908543587
aF-0.023443223908543587
aF0.023443223908543587
aF0.023443223908543587
aF0.035164836794137955
aF-0.007814408279955387
aF0.0039072041399776936
aF-0.011721611954271793
aF0.01953602023422718
aF0.01953602023422718
aF-0.04688644781708717
aF0.05860805884003639
aF-0.05860805884003639
aF0.03907204046845436
aF0.0
aF0.0
aF-0.0039072041399776936
aF0.007814408279955387
aF0.007814408279955387
aF0.007814408279955387
aF0.0
aF-0.007814408279955387
aF0.015628816559910774
aF-0.05860805884003639
aF0.011721611954271793
aF-0.027350427582859993
aF0.0039072041399776936
aF-0.007814408279955387
aF-0.007814408279955387
aF0.007814408279955387
aF-0.03125763311982155
aF0.03125763311982155
aF-0.03125763311982155
aF0.007814408279955387
aF-0.027350427582859993
aF0.03125763311982155
aF-0.04688644781708717
aF0.015628816559910774
aF0.05079365149140358
aF-0.03125763311982155
aF0.011721611954271793
aF-0.007814408279955387
aF0.03125763311982155
aF0.03125763311982155
aF0.04297924414277077
aF0.023443223908543587
aF-0.03907204046845436
aF0.03125763311982155
aF0.01953602023422718
aF0.01953602023422718
aF-0.01953602023422718
aF0.027350427582859993
aF-0.011721611954271793
aF-0.023443223908543587
aF0.023443223908543587
aF-0.011721611954271793
aF0.0039072041399776936
aF-0.007814408279955387
aF-0.007814408279955387
aF-0.0039072041399776936
aF0.015628816559910774
aF-0.05079365149140358
aF0.05079365149140358
aF-0.007814408279955387
aF-0.027350427582859993
aF0.01953602023422718
aF-0.03125763311982155
aF0.03125763311982155
aF0.03125763311982155
aF0.0
aF0.011721611954271793
aF-0.01953602023422718
aF0.007814408279955387
aF-0.023443223908543587
aF-0.0039072041399776936
aF0.007814408279955387
aF-0.023443223908543587
aF0.0
aF0.01953602023422718
aF-0.01953602023422718
aF-0.0039072041399776936
aF0.0039072041399776936
aF0.0
aF0.0
aF0.023443223908543587
aF0.015628816559910774
aF-0.054700855165719986
aF0.035164836794137955
aF-0.0039072041399776936
aF-0.0039072041399776936
aF-0.011721611954271793
aF0.007814408279955387
aF0.01953602023422718
aF-0.054700855165719986
aF0.011721611954271793
aF0.007814408279955387
aF-0.011721611954271793
aF0.007814408279955387
aF0.007814408279955387
aF0.0
aF-0.007814408279955387
aF0.007814408279955387
aF0.0
aF-0.015628816559910774
aF-0.007814408279955387
aF0.011721611954271793
aF-0.015628816559910774
aF0.0
aF0.0
aF0.0039072041399776936
aF-0.0625152662396431
aF0.04688644781708717
aF-0.011721611954271793
aF-0.03907204046845436
aF0.01953602023422718
aF-0.015628816559910774
aF0.023443223908543587
aF-0.04297924414277077
aF-0.0039072041399776936
aF0.035164836794137955
aF-0.05079365149140358
aF0.035164836794137955
aF0.035164836794137955
aF-0.0039072041399776936
aF0.0
aF0.0
aF0.0039072041399776936
aF-0.027350427582859993
aF0.011721611954271793
aF-0.011721611954271793
aF-0.0039072041399776936
aF0.0039072041399776936
aF0.0
aF0.007814408279955387
aF-0.0039072041399776936
aF-0.03907204046845436
aF0.027350427582859993
aF-0.007814408279955387
aF-0.027350427582859993
aF0.027350427582859993
aF-0.03907204046845436
aF0.04297924414277077
aF-0.035164836794137955
aF0.0039072041399776936
aF-0.011721611954271793
aF0.007814408279955387
aF0.0039072041399776936
aF-0.05079365149140358
aF0.027350427582859993
aF-0.023443223908543587
aF0.011721611954271793
aF0.011721611954271793
aF0.0039072041399776936
aF0.011721611954271793
aF-0.035164836794137955
aF0.01953602023422718
aF-0.01953602023422718
aF-0.007814408279955387
aF0.0039072041399776936
aF0.015628816559910774
aF-0.01953602023422718
aF0.01953602023422718
aF0.007814408279955387
aF-0.01953602023422718
aF0.0
aF-0.01953602023422718
aF0.04297924414277077
aF-0.0039072041399776936
aF-0.015628816559910774
aF0.0
aF-0.0039072041399776936
aF0.035164836794137955
aF-0.03125763311982155
aF0.015628816559910774
aF-0.03125763311982155
aF-0.03125763311982155
aF0.011721611954271793
aF-0.015628816559910774
aF0.0
aF0.0
aF-0.007814408279955387
aF-0.01953602023422718
aF0.03125763311982155
aF-0.01953602023422718
aF-0.035164836794137955
aF0.011721611954271793
aF0.0039072041399776936
aF-0.007814408279955387
aF0.007814408279955387
aF-0.015628816559910774
aF0.011721611954271793
aF0.027350427582859993
aF-0.05079365149140358
aF0.054700855165719986
aF-0.05079365149140358
aF-0.05079365149140358
aF0.007814408279955387
aF-0.035164836794137955
aF0.023443223908543587
aF-0.03125763311982155
aF-0.0039072041399776936
aF-0.0039072041399776936
aF0.007814408279955387
aF-0.007814408279955387
aF0.0039072041399776936
aF0.0039072041399776936
aF-0.027350427582859993
aF0.027350427582859993
aF-0.04688644781708717
aF0.035164836794137955
aF0.035164836794137955
aF0.007814408279955387
aF-0.023443223908543587
aF0.011721611954271793
aF0.015628816559910774
aF-0.023443223908543587
aF-0.023443223908543587
aF0.01953602023422718
aF-0.027350427582859993
aF0.007814408279955387
aF0.007814408279955387
aF-0.0039072041399776936
aF0.01953602023422718
aF-0.03125763311982155
aF0.03125763311982155
aF-0.015628816559910774
aF-0.023443223908543587
aF0.01953602023422718
aF-0.01953602023422718
aF0.007814408279955387
aF-0.035164836794137955
aF0.01953602023422718
aF-0.0039072041399776936
aF-0.03125763311982155
aF-0.03125763311982155
aF-0.023443223908543587
aF0.0039072041399776936
aF-0.01953602023422718
aF0.03125763311982155
aF-0.04688644781708717
aF0.0
aF-0.011721611954271793
aF0.0039072041399776936
aF-0.011721611954271793
aF-0.011721611954271793
aF0.04297924414277077
aF-0.03907204046845436
aF0.027350427582859993
aF-0.01953602023422718
aF0.023443223908543587
aF-0.015628816559910774
aF-0.023443223908543587
aF0.027350427582859993
aF-0.03907204046845436
aF0.0039072041399776936
aF-0.007814408279955387
aF0.04297924414277077
aF-0.07814408093690872
aF0.05860805884003639
aF0.05860805884003639
aF-0.01953602023422718
aF0.007814408279955387
aF0.015628816559910774
aF-0.04297924414277077
aF0.04688644781708717
aF0.04688644781708717
aF-0.04688644781708717
aF0.035164836794137955
aF-0.023443223908543587
aF0.0
aF0.007814408279955387
aF-0.023443223908543587
aF0.027350427582859993
aF-0.035164836794137955
aF0.027350427582859993
aF-0.015628816559910774
aF0.01953602023422718
aF-0.023443223908543587
aF0.027350427582859993
aF0.01953602023422718
aF-0.03125763311982155
aF0.027350427582859993
aF-0.03125763311982155
aF-0.03125763311982155
aF-0.015628816559910774
aF0.0
aF-0.007814408279955387
aF0.015628816559910774
aF-0.007814408279955387
aF-0.011721611954271793
aF0.027350427582859993
aF-0.04688644781708717
aF0.05079365149140358
aF-0.03907204046845436
aF-0.023443223908543587
aF0.015628816559910774
aF-0.035164836794137955
aF0.0039072041399776936
aF-0.035164836794137955
aF0.023443223908543587
aF-0.03125763311982155
aF0.007814408279955387
aF0.015628816559910774
aF-0.027350427582859993
aF-0.0039072041399776936
aF0.011721611954271793
aF-0.007814408279955387
aF-0.007814408279955387
aF0.054700855165719986
aF-0.015628816559910774
aF0.0
aF-0.01953602023422718
aF-0.007814408279955387
aF0.035164836794137955
aF-0.07423687726259232
aF0.05079365149140358
aF-0.035164836794137955
aF-0.03125763311982155
aF0.027350427582859993
aF-0.023443223908543587
aF0.0039072041399776936
aF-0.007814408279955387
aF0.0039072041399776936
aF0.0
aF-0.007814408279955387
aF0.0039072041399776936
aF0.0039072041399776936
aF-0.01953602023422718
aF-0.0039072041399776936
aF-0.0039072041399776936
aF-0.007814408279955387
aF-0.04297924414277077
aF-0.007814408279955387
aF0.04297924414277077
aF-0.04688644781708717
aF0.03907204046845436
aF-0.023443223908543587
aF-0.011721611954271793
aF0.023443223908543587
aF-0.035164836794137955
aF0.01953602023422718
aF-0.023443223908543587
aF0.0039072041399776936
aF0.015628816559910774
aF-0.023443223908543587
aF0.023443223908543587
aF-0.007814408279955387
aF-0.023443223908543587
aF-0.0039072041399776936
aF0.0
aF-0.007814408279955387
aF-0.007814408279955387
aF-0.007814408279955387
aF0.0039072041399776936
aF0.011721611954271793
aF0.01953602023422718
aF-0.027350427582859993
aF0.01953602023422718
aF-0.007814408279955387
aF-0.027350427582859993
aF0.04688644781708717
aF-0.01953602023422718
aF0.011721611954271793
aF-0.01953602023422718
aF0.015628816559910774
aF0.01953602023422718
aF-0.03125763311982155
aF0.007814408279955387
aF-0.007814408279955387
aF-0.0039072041399776936
aF-0.015628816559910774
aF0.015628816559910774
aF-0.007814408279955387
aF-0.011721611954271793
aF-0.011721611954271793
aF0.0
aF-0.04297924414277077
aF0.011721611954271793
aF0.0039072041399776936
aF-0.027350427582859993
aF0.007814408279955387
aF-0.007814408279955387
aF0.01953602023422718
aF-0.03907204046845436
aF0.007814408279955387
aF0.027350427582859993
aF-0.03125763311982155
aF0.023443223908543587
aF0.023443223908543587
aF0.05079365149140358
aF-0.011721611954271793
aF-0.0039072041399776936
aF0.0039072041399776936
aF-0.04688644781708717
aF0.027350427582859993
aF-0.023443223908543587
aF0.03907204046845436
aF-0.05860805884003639
aF-0.007814408279955387
aF0.07032967358827591
aF-0.054700855165719986
aF0.03125763311982155
aF0.03125763311982155
aF0.027350427582859993
aF-0.03125763311982155
aF0.035164836794137955
aF-0.01953602023422718
aF-0.007814408279955387
aF-0.007814408279955387
aF0.007814408279955387
aF-0.007814408279955387
aF-0.007814408279955387
aF0.054700855165719986
aF-0.0664224699139595
aF0.0664224699139595
aF-0.0625152662396431
aF0.05860805884003639
aF-0.015628816559910774
aF-0.04297924414277077
aF0.035164836794137955
aF-0.015628816559910774
aF0.04297924414277077
aF-0.04688644781708717
aF0.01953602023422718
aF-0.011721611954271793
aF-0.007814408279955387
aF-0.03907204046845436
aF0.027350427582859993
aF-0.011721611954271793
aF0.011721611954271793
aF-0.01953602023422718
aF-0.0039072041399776936
aF0.027350427582859993
aF-0.03907204046845436
aF0.023443223908543587
aF0.023443223908543587
aF0.015628816559910774
aF0.0039072041399776936
aF-0.007814408279955387
aF0.007814408279955387
aF0.007814408279955387
aF-0.027350427582859993
aF0.027350427582859993
aF-0.035164836794137955
aF0.035164836794137955
aF-0.035164836794137955
aF0.0039072041399776936
aF-0.0039072041399776936
aF0.011721611954271793
aF-0.007814408279955387
aF-0.07032967358827591
aF0.04688644781708717
aF-0.035164836794137955
aF0.023443223908543587
aF-0.027350427582859993
aF0.0
aF-0.007814408279955387
aF0.0039072041399776936
aF-0.015628816559910774
aF-0.0039072041399776936
aF-0.007814408279955387
aF0.015628816559910774
aF-0.007814408279955387
aF-0.007814408279955387
aF0.035164836794137955
aF-0.03907204046845436
aF0.023443223908543587
aF-0.03125763311982155
aF0.011721611954271793
aF0.011721611954271793
aF-0.023443223908543587
aF0.01953602023422718
aF-0.015628816559910774
aF-0.011721611954271793
aF0.023443223908543587
aF-0.0664224699139595
aF0.04688644781708717
aF-0.03125763311982155
aF0.0
aF0.011721611954271793
aF-0.007814408279955387
aF-0.01953602023422718
aF-0.01953602023422718
aF0.04688644781708717
aF-0.0664224699139595
aF0.04688644781708717
aF-0.035164836794137955
aF-0.007814408279955387
aF0.015628816559910774
aF-0.011721611954271793
aF0.007814408279955387
aF-0.015628816559910774
aF0.03125763311982155
aF-0.015628816559910774
aF0.0
aF-0.007814408279955387
aF0.015628816559910774
aF-0.03125763311982155
aF0.015628816559910774
aF-0.0039072041399776936
aF-0.023443223908543587
aF0.0039072041399776936
aF-0.027350427582859993
aF0.015628816559910774
aF-0.011721611954271793
aF0.011721611954271793
aF0.011721611954271793
aF-0.01953602023422718
aF0.011721611954271793
aF-0.023443223908543587
aF0.015628816559910774
aF-0.0039072041399776936
aF-0.01953602023422718
aF0.01953602023422718
aF-0.023443223908543587
aF0.011721611954271793
aF-0.0039072041399776936
aF0.0
aF-0.01953602023422718
aF0.015628816559910774
aF-0.01953602023422718
aF-0.0039072041399776936
aF-0.011721611954271793
aF0.035164836794137955
aF-0.03125763311982155
aF0.01953602023422718
aF0.03907204046845436
aF-0.027350427582859993
aF0.007814408279955387
aF-0.011721611954271793
aF0.007814408279955387
aF-0.007814408279955387
aF-0.027350427582859993
aF0.027350427582859993
aF-0.023443223908543587
aF-0.023443223908543587
aF0.015628816559910774
aF-0.015628816559910774
aF0.0
aF0.0
aF-0.007814408279955387
aF0.007814408279955387
aF-0.015628816559910774
aF0.01953602023422718
aF-0.023443223908543587
aF0.011721611954271793
aF0.0
aF-0.007814408279955387
aF0.015628816559910774
aF-0.0625152662396431
aF0.027350427582859993
aF0.007814408279955387
aF-0.027350427582859993
aF0.01953602023422718
aF-0.027350427582859993
aF0.007814408279955387
aF0.023443223908543587
aF-0.023443223908543587
aF0.015628816559910774
aF0.015628816559910774
aF0.007814408279955387
aF-0.015628816559910774
aF-0.0039072041399776936
aF0.0039072041399776936
aF-0.015628816559910774
aF-0.011721611954271793
aF0.011721611954271793
aF-0.011721611954271793
aF0.0039072041399776936
aF-0.0039072041399776936
aF0.0
aa.