(lp0
(lp1
F0.0
aF0.0
aF0.0
aF0.0
aF0.0
aF0.0
aF0.0
aF0.0
aF0.0
aF0.0
aF0.0
aF0.0
aF0.0
aF0.0
aF0.0
aF0.0
aF0.0
aF0.0
aF0.0
aF0.0
aF0.0
aF0.0
aF0.0
aF0.0
aF0.0
aF0.0
aF0.0
aF0.0
aF0.0
aF0.0
aF0.0
aF0.0
aF0.0
aF0.0
aF0.0
aF0.0
aF0.0
aF0.0
aF0.0
aF0.0
aF0.0
aF0.0
aF0.0
aF0.0
aF0.0
aF0.0
aF0.0
aF0.0
aF0.0
aF0.0
aF0.0
aF0.0
aF0.0
aF0.0
aF0.0
aF0.0
aF0.0
aF0.0
aF0.0
aF0.0
aF0.0
aF0.0
aF0.0
aF0.0
aF0.0
aF0.0
aF0.0
aF0.0
aF0.0
aF0.0
aF0.0
aF0.0
aF0.0
aF0.0
aF0.0
aF0.0
aF0.0
aF0.0
aF0.0
aF0.0
aF0.0
aF0.0
aF0.0
aF0.0
aF0.0
aF0.0
aF0.0
aF0.0
aF0.0
aF0.0
aF0.0
aF0.0
aF0.0
aF0.0
aF0.0
aF0.0
aF0.0
aF0.0
aF0.0
aF0.0
aF0.0
aF0.0
aF0.0
aF0.0
aF0.0
aF0.0
aF0.0
aF0.0
aF0.0
aF0.0
aF0.0
aF0.0
aF0.0
aF0.0
aF0.0
aF0.0
aF0.0
aF0.0
aF0.0
aF0.0
aF0.0
aF0.0
aF0.0
aF0.0
aF0.0
aF0.0
aF0.0
aF0.0
aF0.0
aF0.0
aF0.0
aF0.0
aF0.0
aF0.0
aF0.0
aF0.0
aF0.0
aF0.0
aF0.0
aF0.0
aF0.0
aF0.0
aF0.0
aF0.0
aF0.0
aF0.0
aF0.0
aF0.0
aF0.0
aF0.0
aF0.0
aF0.0
aF0.0
aF0.0
aF0.0
aF0.0
aF0.0
aF0.0
aF0.0
aF0.0
aF0.0
aF0.0
aF0.0
aF0.0
aF0.0
aF0.0
aF0.0
aF0.0
aF0.0
aF0.0
aF0.0
aF0.0
aF0.0
aF0.0
aF0.0
aF0.0
aF0.0
aF0.0
aF0.0
aF0.0
aF0.0
aF0.0
aF0.0
aF0.0
aF0.0
aF0.0
aF0.0
aF0.0
aF0.0
aF0.0
aF0.0
aF0.0
aF0.0
aF0.0
aF0.0
aF0.0
aF0.0
aF0.0
aF0.0
aF0.0
aF0.0
aF0.0
aF0.0
aF0.0
aF0.0
aF0.0
aF0.0
aF0.0
aF0.0
aF0.0
aF0.0
aF0.0
aF0.0
aF0.0
aF0.0
aF0.0
aF0.0
aF0.0
aF0.0
aF0.0
aF0.0
aF0.0
aF0.0
aF0.0
aF0.0
aF0.0
aF0.0
aF0.0
aF0.0
aF0.0
aF0.0
aF0.0
aF0.0
aF0.0
aF0.0
aF0.0
aF0.0
aF0.0
aF0.0
aF0.0
aF0.0
aF0.0
aF0.0
aF0.0
aF0.0
aF0.0
aF0.0
aF0.0
aF0.0
aF0.0
aF0.0
aF0.0
aF0.0
aF0.0
aF0.0
aF0.0
aF0.0
aF0.0
aF0.0
aF0.0
aF0.0
aF0.0
aF0.0
aF0.0
aF0.0
aF0.0
aF0.0
aF0.0
aF0.0
aF0.0
aF0.0
aF0.0
aF0.0
aF0.0
aF0.0
aF0.0
aF0.0
aF0.0
aF0.0
aF0.0
aF0.0
aF0.0
aF0.0
aF0.0
aF0.0
aF0.0
aF0.0
aF0.0
aF0.0
aF0.0
aF0.0
aF0.0
aF0.0
aF0.0
aF0.0
aF0.0
aF0.0
aF0.0
aF0.0
aF0.0
aF0.0
aF0.0
aF0.0
aF0.0
aF0.0
aF0.0
aF0.0
aF0.0
aF0.0
aF0.0
aF0.0
aF0.0
aF0.0
aF0.0
aF0.0
aF0.0
aF0.0
aF0.0
aF0.0
aF0.0
aF0.0
aF0.0
aF0.0
aF0.0
aF0.0
aF0.0
aF0.0
aF0.0
aF0.0
aF0.0
aF0.0
aF0.0
aF0.0
aF0.0
aF0.0
aF0.0
aF0.0
aF0.0
aF0.0
aF0.0
aF0.0
aF0.0
aF0.0
aF0.0
aF0.0
aF0.0
aF0.0
aF0.0
aF0.0
aF0.0
aF0.0
aF0.0
aF0.0
aF0.0
aF0.0
aF0.0
aF0.0
aF0.0
aF0.0
aF0.0
aF0.0
aF0.0
aF0.0
aF0.0
aF0.0
aF0.0
aF0.0
aF0.0
aF0.0
aF0.0
aF0.0
aF0.0
aF0.0
aF0.0
aF0.0
aF0.0
aF0.0
aF0.0
aF0.0
aF0.0
aF0.0
aF0.0
aF0.0
aF0.0
aF0.0
aF0.0
aF0.0
aF0.0
aF0.0
aF0.0
aF0.0
aF0.0
aF0.0
aF0.0
aF0.0
aF0.0
aF0.0
aF0.0
aF0.0
aF0.0
aF0.0
aF0.0
aF0.0
aF0.0
aF0.0
aF0.0
aF0.0
aF0.0
aF0.0
aF0.0
aF0.0
aF0.0
aF0.0
aF0.0
aF0.0
aF0.0
aF0.0
aF0.0
aF0.0
aF0.0
aF0.0
aF0.0
aF0.0
aF0.0
aF0.0
aF0.0
aF0.0
aF0.0
aF0.0
aF0.0
aF0.0
aF0.0
aF0.0
aF0.0
aF0.0
aF0.0
aF0.0
aF0.0
aF0.0
aF0.0
aF0.0
aF0.0
aF0.0
aF0.0
aF0.0
aF0.0
aF0.0
aF0.0
aF0.0
aF0.0
aF0.001847215462476015
aF0.0010462196078151464
aF0.0005025385180488229
aF0.001092496095225215
aF0.0008810241124592721
aF0.0008810240542516112
aF0.0005729941185563803
aF0.0015033527743071318
aF0.0006368977483361959
aF0.0006920702871866524
aF0.0020170474890619516
aF0.0005458514206111431
aF0.001257259980775416
aF0.0017909824382513762
aF0.00024732438032515347
aF0.0009317729854956269
aF0.0007691821083426476
aF0.0006594000151380897
aF0.0004792355466634035
aF0.0008260998874902725
aF0.0007777201826684177
aF0.0005583623424172401
aF0.001228693756274879
aF0.0008591555524617434
aF0.000868702307343483
aF0.000868702307343483
aF0.0011142336297780275
aF0.0007248049369081855
aF0.0006101109320297837
aF0.0016007466474547982
aF0.0003894645196851343
aF0.0008884925046004355
aF0.0011354805901646614
aF0.000504464958794415
aF0.0006740972748957574
aF0.000853156263474375
aF0.0011913103517144918
aF0.0002299736370332539
aF0.0019657949451357126
aF0.001672442420385778
aF0.0002802403178066015
aF0.0022534725721925497
aF0.0011642270255833864
aF0.0009364848956465721
aF0.001493767718784511
aF0.0007358711445704103
aF0.000999639742076397
aF0.0009818661492317915
aF0.0011829709401354194
aF0.000532858888618648
aF0.0008778412593528628
aF0.0013563437387347221
aF0.00045298668555915356
aF0.0014625071780756116
aF0.0013377171708270907
aF0.0007390742539428174
aF0.001223309081979096
aF0.0010732687078416348
aF0.0011634660186246037
aF0.001163465902209282
aF0.0014074997743591666
aF0.001332669984549284
aF0.000973743386566639
aF0.0012323837727308273
aF0.0014395478647202253
aF0.0014395478647202253
aF0.0010533499298617244
aF0.0019513934385031462
aF0.001393072889186442
aF0.0012377318926155567
aF0.002576808212324977
aF0.0010827187215909362
aF0.0017125108279287815
aF0.0023766777012497187
aF0.001382072689011693
aF0.0018985832575708628
aF0.0018985830247402191
aF0.002393361646682024
aF0.001388993812724948
aF0.0025869193486869335
aF0.002834934741258621
aF0.001096828025765717
aF0.0031812344677746296
aF0.0023866607807576656
aF0.0018821569392457604
aF0.0032085867132991552
aF0.002108742482960224
aF0.002350691705942154
aF0.0029722850304096937
aF0.0029722852632403374
aF0.002681092591956258
aF0.00265553779900074
aF0.002980405930429697
aF0.002205844037234783
aF0.0028538801707327366
aF0.0030591324903070927
aF0.002326099667698145
aF0.002326099667698145
aF0.002326099667698145
aF0.002526461146771908
aF0.002526461146771908
aF0.0031815962865948677
aF0.0031911274418234825
aF0.002527618780732155
aF0.002931085880845785
aF0.002531239530071616
aF0.002701785648241639
aF0.002322919899597764
aF0.002651631599292159
aF0.0025803246535360813
aF0.0013987011043354869
aF0.0032273191027343273
aF0.001999241765588522
aF0.0017889493610709906
aF0.0029320400208234787
aF0.0018368684686720371
aF0.0021663822699338198
aF0.0020795019809156656
aF0.0024045458994805813
aF0.001752171665430069
aF0.0019922966603189707
aF0.0027863155119121075
aF0.0011070773471146822
aF0.002083340659737587
aF0.002079174155369401
aF0.0011084014549851418
aF0.002391824731603265
aF0.001671338570304215
aF0.0013750495854765177
aF0.0016395192360505462
aF0.001639519352465868
aF0.001639519352465868
aF0.0016395192360505462
aF0.002317877486348152
aF0.002037134487181902
aF0.002052644034847617
aF0.0023129484616219997
aF0.0019544167444109917
aF0.0021665748208761215
aF0.0021181516349315643
aF0.0021181516349315643
aF0.0017827933188527822
aF0.0019487502286210656
aF0.0022126128897070885
aF0.001563520636409521
aF0.0021550129167735577
aF0.0021550129167735577
aF0.0021550131496042013
aF0.0021550129167735577
aF0.0027631635311990976
aF0.002842479618266225
aF0.001643786090426147
aF0.0031440735328942537
aF0.0021597533486783504
aF0.0015242050867527723
aF0.002895795740187168
aF0.0017239003209397197
aF0.0018076264532282948
aF0.0020180242136120796
aF0.002018023980781436
aF0.0017964642029255629
aF0.0017395321046933532
aF0.002288207644596696
aF0.001334860920906067
aF0.0018139396561309695
aF0.001998094143345952
aF0.0009350405889563262
aF0.0017552541103214025
aF0.0014258911833167076
aF0.0011378994677215815
aF0.0017064491985365748
aF0.0012452219380065799
aF0.001245221821591258
aF0.0012452215887606144
aF0.0012452215887606144
aF0.0012452215887606144
aF0.0011779902270063758
aF0.001177990110591054
aF0.001177990110591054
aF0.001177990110591054
aF0.001177990110591054
aF0.0014524394646286964
aF0.0008615023689344525
aF0.0008622825844213367
aF0.0014516774099320173
aF0.0009331054170615971
aF0.0011930025648325682
aF0.0012657797196879983
aF0.0008140748832374811
aF0.0006197627517394722
aF0.000695768219884485
aF0.0007899224874563515
aF0.000281281943898648
aF0.0009815557859838009
aF0.0007980071241036057
aF0.0003396084357518703
aF0.0011272216215729713
aF0.0006468010833486915
aF0.0006433770759031177
aF0.0011283097555860877
aF0.0006740396493114531
aF0.0007811750983819366
aF0.0007811750983819366
aF0.000991877168416977
aF0.0007849087123759091
aF0.0009395115775987506
aF0.0011802498484030366
aF0.0007084087701514363
aF0.0013257683021947742
aF0.0012552503030747175
aF0.0010653944918885827
aF0.001636285218410194
aF0.0016362849855795503
aF0.001636285101994872
aF0.001636285218410194
aF0.001636285218410194
aF0.0015205828240141273
aF0.001520582940429449
aF0.0015205827075988054
aF0.0015205824747681618
aF0.00152058235835284
aF0.0013215831713750958
aF0.0019507387187331915
aF0.001550185726955533
aF0.0014488671440631151
aF0.0019829345401376486
aF0.0011250425595790148
aF0.001344645512290299
aF0.0017684577032923698
aF0.0014572273939847946
aF0.0014572275104001164
aF0.0014572275104001164
aF0.00196973979473114
aF0.0011001365492120385
aF0.0015231053112074733
aF0.0017007237765938044
aF0.0007297086995095015
aF0.0014687617076560855
aF0.0011412391904741526
aF0.0006484998157247901
aF0.00107585487421602
aF0.0006980030448175967
aF0.0007180203683674335
aF0.0008653017575852573
aF0.0011099347611889243
aF0.0009653778979554772
aF0.0009112376719713211
aF0.0013735725078731775
aF0.0007137130596674979
aF0.0008310741977766156
aF0.0009431671351194382
aF0.0005303799407556653
aF0.000690266489982605
aF0.0006816655513830483
aF0.0006816656095907092
aF0.0008940434199757874
aF0.0010196893708780408
aF0.0009728841250762343
aF0.0009728840668685734
aF0.0009728840668685734
aF0.0009728840668685734
aF0.0010817196452990174
aF0.0008459140080958605
aF0.0010478164767846465
aF0.0010178376687690616
aF0.0006840702844783664
aF0.0011538779363036156
aF0.0008685459033586085
aF0.00077474070712924
aF0.0011836865451186895
aF0.0009458741988055408
aF0.001039517461322248
aF0.0010395173449069262
aF0.0012943444307893515
aF0.0008820930379442871
aF0.0009462246671319008
aF0.0014836344635114074
aF0.0007250523194670677
aF0.0010026720119640231
aF0.001212495262734592
aF0.000750542851164937
aF0.0011888759909197688
aF0.0010732051450759172
aF0.0007872995920479298
aF0.001018247683532536
aF0.001018247683532536
aF0.0010182475671172142
aF0.0008504102588631213
aF0.0010935356840491295
aF0.0010935355676338077
aF0.0010935354512184858
aF0.0013257050886750221
aF0.0010722775477916002
aF0.0010722774313762784
aF0.0012116864090785384
aF0.0014971853233873844
aF0.0012909040087834
aF0.0012772366171702743
aF0.001277236733585596
aF0.0010154560441151261
aF0.001015456160530448
aF0.0010154560441151261
aF0.001015456160530448
aF0.001015456160530448
aF0.0011074536014348269
aF0.0013835806166753173
aF0.0008662458276376128
aF0.001520447782240808
aF0.001463056541979313
aF0.0009222970111295581
aF0.0011732587590813637
aF0.0008418118814006448
aF0.0008092357311397791
aF0.0008092357311397791
aF0.00080923578934744
aF0.0006535446736961603
aF0.00048495468217879534
aF0.0008628087816759944
aF0.0006828746409155428
aF0.0008732279529795051
aF0.0010963999666273594
aF0.0006448752246797085
aF0.001016709371469915
aF0.000978241441771388
aF0.0008024039561860263
aF0.0010380850872024894
aF0.0009033484384417534
aF0.0009033483220264316
aF0.0011348032858222723
aF0.0011348031694069505
aF0.0011348031694069505
aF0.0011348031694069505
aF0.0014122006250545382
aF0.001638476736843586
aF0.001659259432926774
aF0.0014603702584281564
aF0.0014603701420128345
aF0.0012663794914260507
aF0.0012663794914260507
aF0.0015163805801421404
aF0.0015163805801421404
aF0.0015163803473114967
aF0.0016698704566806555
aF0.0016698702238500118
aF0.0016698702238500118
aF0.0017503558192402124
aF0.0021983576007187366
aF0.0015275075566023588
aF0.0019635327626019716
aF0.0021537344437092543
aF0.0015506144845858216
aF0.001854068716056645
aF0.0016574218170717359
aF0.0014835355104878545
aF0.001795734977349639
aF0.001795734977349639
aF0.0017957347445189953
aF0.0015656595351174474
aF0.0018897629342973232
aF0.0016927436226978898
aF0.0015943215694278479
aF0.0018561896868050098
aF0.001014374429360032
aF0.0011222796747460961
aF0.0015375107759609818
aF0.0012472120579332113
aF0.0017049534944817424
aF0.0017049532616510987
aF0.0014958253595978022
aF0.001813241047784686
aF0.001813241164200008
aF0.001813241164200008
aF0.0015553988050669432
aF0.0015553988050669432
aF0.0015553986886516213
aF0.0015553985722362995
aF0.0015553984558209777
aF0.001848037471063435
aF0.0017614783719182014
aF0.0017614782555028796
aF0.002103474223986268
aF0.0023755731526762247
aF0.002392140682786703
aF0.002392140682786703
aF0.0023921404499560595
aF0.002169885905459523
aF0.002096287440508604
aF0.002415527356788516
aF0.0017518855165690184
aF0.0018699094653129578
aF0.0022224935237318277
aF0.001872156746685505
aF0.0024429005570709705
aF0.002421996556222439
aF0.0016529994318261743
aF0.00234947819262743
aF0.0021163776982575655
aF0.0020342443604022264
aF0.00203424459323287
aF0.0017016764031723142
aF0.0018832409987226129
aF0.0018832409987226129
aF0.001883240882307291
aF0.00221536448225379
aF0.0022153642494231462
aF0.002396178664639592
aF0.002396177966147661
aF0.002711193636059761
aF0.0027111931703984737
aF0.0024473792873322964
aF0.0024473792873322964
aF0.0019868987146764994
aF0.0019190674647688866
aF0.0025583188980817795
aF0.0018821257399395108
aF0.0019927676767110825
aF0.002615453442558646
aF0.002231291960924864
aF0.0027981095481663942
aF0.0028500279877334833
aF0.001942974515259266
aF0.002300178399309516
aF0.002300178399309516
aF0.002225189469754696
aF0.0025534348096698523
aF0.002195871202275157
aF0.002001584740355611
aF0.0018025661120191216
aF0.0025213740300387144
aF0.0022467796225100756
aF0.002251675818115473
aF0.002523043891415
aF0.0018029455095529556
aF0.002006039721891284
aF0.0020831902511417866
aF0.00150420016143471
aF0.0015042000450193882
aF0.0015042000450193882
aF0.0015042000450193882
aF0.0012283677933737636
aF0.0012283676769584417
aF0.0011943415738642216
aF0.0010193083435297012
aF0.001283988356590271
aF0.0011102338321506977
aF0.0010693437652662396
aF0.0010693437652662396
aF0.0008301680209115148
aF0.0009751831530593336
aF0.0009751831530593336
aF0.0011939702089875937
aF0.000953737529926002
aF0.0009537374135106802
aF0.0009537374717183411
aF0.0012046812335029244
aF0.001434408244676888
aF0.001486192224547267
aF0.001486192224547267
aF0.0014861919917166233
aF0.0017199984285980463
aF0.0017271328251808882
aF0.0012712498428300023
aF0.0012712497264146805
aF0.0011176184052601457
aF0.0011176184052601457
aF0.0013707721373066306
aF0.0011279627215117216
aF0.0011279627215117216
aF0.0011279627215117216
aF0.0017127958126366138
aF0.0015023392625153065
aF0.001502889092080295
aF0.0017131039639934897
aF0.0008815082255750895
aF0.0010365777416154742
aF0.0011517500970512629
aF0.0009207951370626688
aF0.0011522886343300343
aF0.0010781879536807537
aF0.0010781878372654319
aF0.0013487839605659246
aF0.0013487839605659246
aF0.0013487839605659246
aF0.0011401562951505184
aF0.0011401562951505184
aF0.0011401561787351966
aF0.001093925442546606
aF0.0013226164737716317
aF0.0008428849396295846
aF0.0008428848814219236
aF0.0011325121158733964
aF0.0011325119994580746
aF0.0015359328826889396
aF0.0015359327662736177
aF0.0013227068120613694
aF0.001621802570298314
aF0.0014408885035663843
aF0.0013801958411931992
aF0.0013801957247778773
aF0.001117208506911993
aF0.001233405084349215
aF0.0014836709015071392
aF0.0009520172025077045
aF0.0011619172291830182
aF0.0011403701500967145
aF0.0009446671465411782
aF0.0014819977805018425
aF0.001195856835693121
aF0.0011004592524841428
aF0.0013539756182581186
aF0.0009071498061530292
aF0.0009071497479453683
aF0.0009071496897377074
aF0.0009071496897377074
aF0.0007714582607150078
aF0.0007302355952560902
aF0.0011407947167754173
aF0.0009115057182498276
aF0.001247917301952839
aF0.0014414852485060692
aF0.0007224559085443616
aF0.0011605656472966075
aF0.001032057567499578
aF0.0007632920751348138
aF0.0009893655078485608
aF0.0006623044027946889
aF0.0006517267320305109
aF0.0010066654067486525
aF0.0010066654067486525
aF0.0010066652903333306
aF0.0010066651739180088
aF0.001006665057502687
aF0.001006665057502687
aF0.0010661003179848194
aF0.0010661002015694976
aF0.000829682219773531
aF0.0006677080527879298
aF0.0006906809285283089
aF0.0008829282014630735
aF0.0008829280850477517
aF0.0008829280850477517
aF0.0008829281432554126
aF0.0011257156729698181
aF0.0011257155565544963
aF0.0011529503390192986
aF0.001152950106188655
aF0.001152950106188655
aF0.001152949989773333
aF0.0011955974623560905
aF0.0009741713292896748
aF0.0
aF0.0
aF0.00013739618589170277
aF0.0002410804881947115
aF8.499870455125347e-05
aF0.00031753559596836567
aF0.00023066657013259828
aF0.0010466303210705519
aF0.0004580656241159886
aF0.0006160484626889229
aF0.0006296240608207881
aF0.0007576624630019069
aF0.0010356225538998842
aF0.0005392759339883924
aF0.0019956494215875864
aF0.0006325184949673712
aF0.0013459151377901435
aF0.0008813907625153661
aF0.0012720616068691015
aF0.0016838882584124804
aF0.0015274900943040848
aF0.0016082492657005787
aF0.0016397536965087056
aF0.0015285834670066833
aF0.0019263246795162559
aF0.001411326345987618
aF0.0020078301895409822
aF0.0008567609474994242
aF0.0008567609474994242
aF0.00036085251485928893
aF0.0009745400166139007
aF0.0008131172508001328
aF0.0010684877634048462
aF0.0010159730445593596
aF0.0006910268566571176
aF0.0008373354212380946
aF0.0005173758254386485
aF0.000821817375253886
aF0.0005254724528640509
aF0.0013650888577103615
aF0.0004589622840285301
aF0.0006405968451872468
aF0.0004706698819063604
aF0.0015081095043569803
aF0.0010773520916700363
aF0.0007936654728837311
aF0.0007588777225464582
aF0.000817580905277282
aF0.0010795074049383402
aF0.0008818735368549824
aF0.0007398755406029522
aF0.0013971399748697877
aF0.0003908808866981417
aF0.0005735555314458907
aF0.0003195821773260832
aF0.0010034602601081133
aF0.00030525244073942304
aF0.0008307637181133032
aF8.895247447071597e-05
aF0.00028092932188883424
aF0.0005685588112100959
aF0.0007349498337134719
aF0.0004316939157433808
aF0.0006219702772796154
aF0.0006219702772796154
aF0.0003322399570606649
aF4.629534305422567e-05
aF0.00015471444930881262
aF0.000264215370407328
aF0.0007815862190909684
aF0.0001223691797349602
aF0.0001739139115670696
aF0.00017391392611898482
aF0.0006462334422394633
aF0.00033700931817293167
aF0.0003307259175926447
aF0.0010505409445613623
aF0.00011443694529589266
aF0.00026871811132878065
aF4.007119423476979e-05
aF0.0008619997533969581
aF0.00046516137081198394
aF0.00046516131260432303
aF0.00015935185365378857
aF0.0004880301421508193
aF0.00048803017125464976
aF0.0005765287205576897
aF0.0005765287205576897
aF0.0006160289631225169
aF0.0005808401620015502
aF0.0005808402202092111
aF0.0012552670668810606
aF0.0009016990661621094
aF0.0009498942526988685
aF0.0012104175984859467
aF0.0006525263306684792
aF0.0006932214018888772
aF0.0005428260192275047
aF0.0006473059765994549
aF0.0005055305664427578
aF0.0005055305082350969
aF0.00022514032025355846
aF0.0005195960402488708
aF0.0003602897049859166
aF0.0002457630471326411
aF0.0001519704092061147
aF0.00013523054076358676
aF0.00015212109428830445
aF0.00017729663522914052
aF0.0002443260164000094
aF0.0003593024448491633
aF0.0003593024448491633
aF0.00022652051120530814
aF0.00035398389445617795
aF0.0011124943848699331
aF0.0007268363842740655
aF0.0012289696605876088
aF0.0008298709872178733
aF0.0012561341281980276
aF0.001215041964314878
aF0.0008681103936396539
aF0.002060198225080967
aF0.000834588659927249
aF0.0012998264282941818
aF0.00042289242264814675
aF0.001307537779211998
aF0.0019062046194449067
aF0.0022171316668391228
aF0.001961994217708707
aF0.0016002830816432834
aF0.0018161428160965443
aF0.0018183838110417128
aF0.0015938703436404467
aF0.002359061734750867
aF0.0014017645735293627
aF0.0014017644571140409
aF0.00025337724946439266
aF0.0015898204874247313
aF0.002273675985634327
aF0.0026512769982218742
aF0.0017190868966281414
aF0.0013661086559295654
aF0.0015787631273269653
aF0.00189410918392241
aF0.001975449500605464
aF0.002094486728310585
aF0.002501972019672394
aF0.0028251011390239
aF0.00179383996874094
aF0.001483857980929315
aF0.003836379386484623
aF0.002972965594381094
aF0.0026384717784821987
aF0.0017971652559936047
aF0.0018180455081164837
aF0.0018558305455371737
aF0.0018810757901519537
aF0.0018810756737366319
aF0.002923913998529315
aF0.002271950477734208
aF0.0022719502449035645
aF0.0002929148613475263
aF0.0019730166532099247
aF0.0016501650679856539
aF0.0038582230918109417
aF0.0017860628431662917
aF0.0019132179440930486
aF0.0018721604719758034
aF0.00204280368052423
aF0.00204280368052423
aF0.0023716832511126995
aF0.0023716832511126995
aF0.002077571116387844
aF0.0006648693233728409
aF0.0010773541871458292
aF0.000838305801153183
aF0.002736251102760434
aF0.0007759472355246544
aF0.0007759472355246544
aF0.0006709019071422517
aF0.0008959320257417858
aF0.0008463006815873086
aF0.0009584056097082794
aF0.0020529557950794697
aF0.0017321838531643152
aF0.001732183969579637
aF0.0011531109921634197
aF0.0027094592805951834
aF0.00345437740907073
aF0.00345437740907073
aF0.0027509541250765324
aF0.0030273825395852327
aF0.003061274765059352
aF0.003356138477101922
aF0.0033392407931387424
aF0.0038257306441664696
aF0.00451619690284133
aF0.002605161862447858
aF0.001176242483779788
aF0.0009456559782847762
aF0.0009456560364924371
aF0.0014862057287245989
aF0.0004374916898086667
aF0.00034864002373069525
aF0.000440405827248469
aF0.00021316297352313995
aF0.00021316297352313995
aF0.00017461468814872205
aF0.0006138716707937419
aF0.00044041473302058876
aF0.00044041467481292784
aF0.0002972698712255806
aF0.0005830535083077848
aF0.0007463052170351148
aF0.001090862206183374
aF0.0009520489256829023
aF0.0009520488674752414
aF0.0010963035747408867
aF0.0011020629899576306
aF0.0009411296341568232
aF0.0011424999684095383
aF0.0007202913402579725
aF0.0010623257840052247
aF0.001312816864810884
aF0.0010460397461429238
aF0.00029319111490622163
aF0.0002931910566985607
aF0.00029319102759473026
aF0.0012001110007986426
aF0.0007284167222678661
aF0.0007294890820048749
aF0.0008567054173909128
aF0.0003638917696662247
aF0.00021517404820770025
aF0.0002151740191038698
aF0.0005356504116207361
aF0.0007235862431116402
aF0.00012704193068202585
aF5.75912999920547e-05
aF2.6848685592995025e-05
aF0.000607433554250747
aF0.00023082620464265347
aF0.00030008755857124925
aF0.000845306261908263
aF8.064421126618981e-05
aF8.064419671427459e-05
aF0.00017524775466881692
aF0.00022555794566869736
aF0.0006753784837201238
aF0.000487566547235474
aF0.00012442204752005637
aF0.00012442203296814114
aF0.0005398842040449381
aF0.0008796956390142441
aF0.0010580478701740503
aF0.0007202791166491807
aF0.0006723447004333138
aF0.0005658823065459728
aF0.0006948739755898714
aF0.0006275320192798972
aF0.0007847801316529512
aF0.0011557020479813218
aF0.0005464264540933073
aF8.632010576548055e-05
aF8.632011304143816e-05
aF0.0006149450782686472
aF0.0006149450200609863
aF0.00032742926850914955
aF0.00027322222013026476
aF0.00014830142026767135
aF0.00030128989601507783
aF0.0004995895433239639
aF0.00036536238621920347
aF0.00044552682084031403
aF0.00033353728940710425
aF0.00015847843314986676
aF0.00015847843314986676
aF0.0001584784040460363
aF0.00024023103469517082
aF9.418341505806893e-05
aF0.00016384950140491128
aF0.00013139995280653238
aF0.00015304052794817835
aF0.0008295074803754687
aF0.00029404021915979683
aF0.0002940401900559664
aF0.0001070956204785034
aF0.0011875919299200177
aF0.001437916187569499
aF0.0012311319587752223
aF0.0009789791656658053
aF0.0008192751556634903
aF0.0009391300845891237
aF0.0004551103920675814
aF0.0013292087242007256
aF0.0026837217155843973
aF0.0026837214827537537
aF0.0023214337415993214
aF0.0020398725755512714
aF0.0030703512020409107
aF0.0035935367923229933
aF0.004289955832064152
aF0.003959234803915024
aF0.003901298623532057
aF0.0038148395251482725
aF0.0033720284700393677
aF0.0036010625772178173
aF0.003956692758947611
aF0.0031332143116742373
aF0.002724481513723731
aF0.0023318638559430838
aF0.00233186362311244
aF0.003045670222491026
aF0.0033854530192911625
aF0.003385452786460519
aF0.003385452553629875
aF0.0034476190339773893
aF0.003421934088692069
aF0.0032526515424251556
aF0.0037699309177696705
aF0.004107451532036066
aF0.004556102678179741
aF0.003590427106246352
aF0.0035904268734157085
aF0.005082824733108282
aF0.0055902497842907906
aF0.0055902497842907906
aF0.004555567633360624
aF0.0046338592655956745
aF0.00469558360055089
aF0.004498126916587353
aF0.004817606881260872
aF0.0036512291990220547
aF0.0036512287333607674
aF0.0027926231268793344
aF0.004688699264079332
aF0.0028675133362412453
aF0.003226681612432003
aF0.0026894044131040573
aF0.0028488643001765013
aF0.0029338744934648275
aF0.002959746867418289
aF0.00282478635199368
aF0.0033246763050556183
aF0.0037027872167527676
aF0.003702786983922124
aF0.0037027867510914803
aF0.00418444350361824
aF0.003334576729685068
aF0.003673288505524397
aF0.003429045435041189
aF0.0033267594408243895
aF0.0033735311590135098
aF0.003211480565369129
aF0.002975934185087681
aF0.002975934185087681
aF0.0026169444900006056
aF0.0030173107516020536
aF0.00301731051877141
aF0.0034455799032002687
aF0.004775752313435078
aF0.004775752779096365
aF0.0037915806751698256
aF0.003791580442339182
aF0.003871086286380887
aF0.0033603853080421686
aF0.002953695133328438
aF0.0024784826673567295
aF0.003111358266323805
aF0.0027227899990975857
aF0.003141248133033514
aF0.002333184704184532
aF0.0030868318863213062
aF0.0024399191606789827
aF0.0026722869370132685
aF0.00253187189809978
aF0.0025705862790346146
aF0.002530836034566164
aF0.0025308358017355204
aF0.0022140038199722767
aF0.002442753640934825
aF0.0016389406519010663
aF0.0013809481170028448
aF0.0006905361078679562
aF0.000504230207297951
aF0.000214615574805066
aF0.0003384040610399097
aF0.00015005133172962815
aF0.00020807770488318056
aF0.00017238128930330276
aF0.00015577570593450218
aF0.00021015088714193553
aF0.00025567522970959544
aF0.0002564036112744361
aF0.0001944811810972169
aF0.00018087102216668427
aF0.0001808709930628538
aF0.00047293308307416737
aF0.00012402045831549913
aF0.00022066841484047472
aF9.821156709222123e-06
aF0.00021853201906196773
aF0.0004992515896447003
aF0.0008715299773029983
aF0.0006983320345170796
aF0.0005239954334683716
aF0.0005496153025887907
aF0.0005720562185160816
aF0.00046470100642181933
aF0.0005458890227600932
aF0.0002825012488756329
aF0.0008189323707483709
aF0.0008189323707483709
aF0.0013271700590848923
aF0.0006435017567127943
aF0.0006435016402974725
aF0.0007765102782286704
aF0.0010405281791463494
aF0.0009492154931649566
aF0.0009827909525483847
aF0.0008896008366718888
aF0.000889600720256567
aF0.0007268139743246138
aF0.0011512429919093847
aF0.0006879547727294266
aF0.0006879547727294266
aF0.0006879547145217657
aF0.0008725501829758286
aF0.001050577498972416
aF0.0009220094652846456
aF0.0009220094652846456
aF0.0009220095234923065
aF0.0008683041087351739
aF0.000868304050527513
aF0.0007358966395258904
aF0.0011154023231938481
aF0.0008814766770228744
aF0.0006654162425547838
aF0.0008791448199190199
aF0.0005165577749721706
aF0.00041081730159930885
aF0.000365123909432441
aF0.00036341988015919924
aF0.0004810485115740448
aF0.0003002576995640993
aF0.001129449694417417
aF0.0008844145340844989
aF0.0017144811572507024
aF0.0014253463596105576
aF0.0019578312058001757
aF0.002499163383617997
aF0.0030117633286863565
aF0.0026856097392737865
aF0.0026728759985417128
aF0.002796103246510029
aF0.0030467365868389606
aF0.0027166283689439297
aF0.0027166286017745733
aF0.003134070662781596
aF0.003134070662781596
aF0.0031340704299509525
aF0.0024959819857031107
aF0.0021374430507421494
aF0.0021374428179115057
aF0.002162130316719413
aF0.0024246126413345337
aF0.001893182285130024
aF0.001699751941487193
aF0.0011108836624771357
aF0.0028651964385062456
aF0.0028651964385062456
aF0.0037567485123872757
aF0.0025542741641402245
aF0.002867056056857109
aF0.0024304729886353016
aF0.0025391203816980124
aF0.0025391201488673687
aF0.002437277464196086
aF0.002572844736278057
aF0.0019862374756485224
aF0.0022281671408563852
aF0.001926105353049934
aF0.0019261051202192903
aF0.0019261050038039684
aF0.0016061206115409732
aF0.0013461236376315355
aF0.001012735883705318
aF0.001012735883705318
aF0.001048485515639186
aF0.001048485515639186
aF0.001686982810497284
aF0.001686982810497284
aF0.002781929448246956
aF0.0017033318290486932
aF0.0020019228104501963
aF0.0017544685397297144
aF0.00265421811491251
aF0.00265421811491251
aF0.00265421811491251
aF0.002902770647779107
aF0.0025156838819384575
aF0.0027813974302262068
aF0.0024466929025948048
aF0.002446692669764161
aF0.0028475553262978792
aF0.0032715261913836002
aF0.0032715261913836002
aF0.0026574113871902227
aF0.0028630958404392004
aF0.002638795878738165
aF0.002576625207439065
aF0.002576625207439065
aF0.0024325144477188587
aF0.003910384140908718
aF0.003087880089879036
aF0.0026810965500772
aF0.0016046679811552167
aF0.003053699154406786
aF0.002682608552277088
aF0.002682608552277088
aF0.002323627471923828
aF0.002392316935583949
aF0.002420688048005104
aF0.0023793841246515512
aF0.0025191078893840313
aF0.0022906633093953133
aF0.0017796473111957312
aF0.0017796470783650875
aF0.0014791333815082908
aF0.0017944645369425416
aF0.0017944644205272198
aF0.0017944641876965761
aF0.000955858500674367
aF0.0010009302059188485
aF0.0010009302059188485
aF0.0010009300895035267
aF0.0013188327429816127
aF0.0013188326265662909
aF0.0016042544739320874
aF0.001039427355863154
aF0.0015895593678578734
aF0.0018839819822460413
aF0.002470660489052534
aF0.002470660489052534
aF0.002874857047572732
aF0.002668841043487191
aF0.002704939804971218
aF0.0026675155386328697
aF0.0025406661443412304
aF0.0030808623414486647
aF0.002274043159559369
aF0.002274043159559369
aF0.000939771649427712
aF0.000939771591220051
aF0.0005253307754173875
aF0.0009428305784240365
aF0.00019288483599666506
aF0.00015786754374857992
aF0.00023104097635950893
aF0.00011376237671356648
aF0.00013954391761217266
aF0.00013954390306025743
aF0.00029567009187303483
aF0.00042943560401909053
aF0.00028429756639525294
aF0.0001683951704762876
aF0.00041723414324223995
aF0.0007574301562272012
aF0.0007574300980195403
aF0.0007574301562272012
aF0.0006471947999671102
aF0.0006471947999671102
aF0.000549870659597218
aF0.0006806126912124455
aF0.0012366927694529295
aF0.0018216550815850496
aF0.0007319171563722193
aF0.00038709654472768307
aF0.0006911258678883314
aF0.0018307752907276154
aF0.0015885519096627831
aF0.0014404478715732694
aF0.0014009353471919894
aF0.0014009352307766676
aF0.0012414647499099374
aF0.0010562713723629713
aF0.002504559699445963
aF0.0029091057367622852
aF0.00333939166739583
aF0.0019400957971811295
aF0.001940095447935164
aF0.0021102705504745245
aF0.002224262338131666
aF0.0022242621053010225
aF0.002301932079717517
aF0.0019938426557928324
aF0.0019938426557928324
aF0.0015124818310141563
aF0.002093933057039976
aF0.0017580778803676367
aF0.0024734155740588903
aF0.0021187621168792248
aF0.00243051303550601
aF0.002183305798098445
aF0.002348807640373707
aF0.0022765002213418484
aF0.002255219267681241
aF0.0024714504834264517
aF0.0019229920580983162
aF0.0017239588778465986
aF0.0019864533096551895
aF0.0026935175992548466
aF0.0026935178320854902
aF0.0023114243522286415
aF0.0019937907345592976
aF0.002255446510389447
aF0.0033108280040323734
aF0.0024656993336975574
aF0.002762032439932227
aF0.0030172541737556458
aF0.0018689160933718085
aF0.0018689158605411649
aF0.001868915744125843
aF0.00393797317519784
aF0.0026440368965268135
aF0.002316763624548912
aF0.0017152174841612577
aF0.0020779238548129797
aF0.0024514044634997845
aF0.0023930268362164497
aF0.0027031931094825268
aF0.003249680856242776
aF0.0022520828060805798
aF0.0016367384232580662
aF0.0013447535457089543
aF0.002341832499951124
aF0.001992170698940754
aF0.0010488663101568818
aF0.0008681599283590913
aF0.0009285706328228116
aF0.0011668031802400947
aF0.0011668031802400947
aF0.0011979702394455671
aF0.0016786104533821344
aF0.0019567476119846106
aF0.0011012806789949536
aF0.000859434949234128
aF0.0013755906838923693
aF0.0023279679007828236
aF0.0017404931131750345
aF0.0012664138339459896
aF0.0012437229743227363
aF0.0011266845976933837
aF0.0011266845976933837
aF0.0012457682751119137
aF0.0022604279220104218
aF0.0019203238189220428
aF0.0019203235860913992
aF0.0019203234696760774
aF0.0029733057599514723
aF0.004138072021305561
aF0.004506103228777647
aF0.003396929008886218
aF0.003438601503148675
aF0.0031522323843091726
aF0.0023848749697208405
aF0.002534396480768919
aF0.0028020304162055254
aF0.003995129372924566
aF0.001952331978827715
aF0.0016223404090851545
aF0.001942453789524734
aF0.0038405032828450203
aF0.0034582815133035183
aF0.002749775303527713
aF0.002638084813952446
aF0.0024262231308966875
aF0.0021445569582283497
aF0.0021445569582283497
aF0.003089075442403555
aF0.004978663753718138
aF0.003461975371465087
aF0.0019359667785465717
aF0.001935966545715928
aF0.00271495059132576
aF0.0023269338998943567
aF0.0022498222533613443
aF0.0023541292175650597
aF0.002578791929408908
aF0.001773721189238131
aF0.0017737213056534529
aF0.0021034309174865484
aF0.0017603222513571382
aF0.0014581659343093634
aF0.0010082421358674765
aF0.0010082421358674765
aF0.0012496481649577618
aF0.001481932937167585
aF0.0014242124743759632
aF0.0014042375842109323
aF0.0017846853006631136
aF0.001365510979667306
aF0.0018905957695096731
aF0.0015780575340613723
aF0.001578057650476694
aF0.0008100655395537615
aF0.0008100655395537615
aF0.001160872052423656
aF0.0010214269859716296
aF0.0010214269859716296
aF0.0014131991192698479
aF0.0007992850150913
aF0.0007992850150913
aF0.0006335622165352106
aF0.0010512758744880557
aF0.0013192996848374605
aF0.0019364699255675077
aF0.0007558373035863042
aF0.0005430030869320035
aF0.0006119065219536424
aF0.0007113619358278811
aF0.0008269003592431545
aF0.0010522172087803483
aF0.0010522172087803483
aF0.00067920982837677
aF0.00012023378803860396
aF0.0001593867491465062
aF0.00015938673459459096
aF0.00039742665830999613
aF0.00025693810312077403
aF0.00015053247625473887
aF0.0002460009418427944
aF0.0004934060270898044
aF0.0010150509187951684
aF0.0006080753519199789
aF0.0005847018328495324
aF0.0005847017746418715
aF0.00038886492257006466
aF0.0003500753955449909
aF0.0007591407047584653
aF0.0007591405301354825
aF0.001527257263660431
aF0.00025591382291167974
aF0.0007150116725824773
aF0.0009054264519363642
aF0.0015491611557081342
aF0.0009591035777702928
aF0.0009713461040519178
aF0.0010848792735487223
aF0.0007808819646015763
aF0.00042434013448655605
aF0.000331628427375108
aF0.0006045709014870226
aF0.0008058602106757462
aF0.00027845214935950935
aF0.00017087292508222163
aF0.0002638253499753773
aF0.0010811772663146257
aF0.0008890696335583925
aF0.0006879796856082976
aF0.0006859773420728743
aF0.0006249333964660764
aF0.0006339593091979623
aF0.0006324873538687825
aF0.0010282951407134533
aF0.0005512043135240674
aF0.0003182619111612439
aF0.00014179132995195687
aF0.00016725505702197552
aF0.0008769959677010775
aF0.002412541536614299
aF0.001724368310533464
aF0.0012237405171617866
aF0.0012237404007464647
aF0.0015004680026322603
aF0.0014183084713295102
aF0.0014999345876276493
aF0.001852372195571661
aF0.0008897335501387715
aF0.0006209210259839892
aF0.0007794726407155395
aF0.0018326236167922616
aF0.0018326235003769398
aF0.001250913366675377
aF0.0014932183548808098
aF0.0014932184712961316
aF0.0025896714068949223
aF0.002820829162374139
aF0.0025806010235100985
aF0.002882998902350664
aF0.0023137982934713364
aF0.0019156010821461678
aF0.002171308035030961
aF0.002511671045795083
aF0.0025116705801337957
aF0.002916751429438591
aF0.0025361008010804653
aF0.002865895628929138
aF0.0031524724327027798
aF0.00266527128405869
aF0.00266527128405869
aF0.0027745836414396763
aF0.0023902091197669506
aF0.0023902091197669506
aF0.0023902086541056633
aF0.0020454488694667816
aF0.002045448636636138
aF0.0024097084533423185
aF0.0024097084533423185
aF0.001871506916359067
aF0.002512092934921384
aF0.0022258262615650892
aF0.0022580954246222973
aF0.0022580951917916536
aF0.0019615446217358112
aF0.0019615446217358112
aF0.002459135837852955
aF0.003199769416823983
aF0.002779437694698572
aF0.002019233535975218
aF0.002363251056522131
aF0.002063932828605175
aF0.002297772327437997
aF0.0020240494050085545
aF0.002054431941360235
aF0.0022108436096459627
aF0.0016685782466083765
aF0.001836827490478754
aF0.0016017762245610356
aF0.0033347797580063343
aF0.003334779292345047
aF0.004285012371838093
aF0.003832384245470166
aF0.004215836990624666
aF0.003928178921341896
aF0.004100071266293526
aF0.004280059598386288
aF0.004377199802547693
aF0.00433445256203413
aF0.003989729098975658
aF0.003989729098975658
aF0.0036988817155361176
aF0.0036988817155361176
aF0.0032809239346534014
aF0.0032809237018227577
aF0.0032809239346534014
aF0.003280924167484045
aF0.0026057669892907143
aF0.0026057669892907143
aF0.002484277356415987
aF0.0024842778220772743
aF0.0024842775892466307
aF0.002691894304007292
aF0.0033601662144064903
aF0.002953239483758807
aF0.0038561758119612932
aF0.004877111874520779
aF0.005945171229541302
aF0.005026262253522873
aF0.005026262253522873
aF0.004582872614264488
aF0.004561020527034998
aF0.004432102665305138
aF0.0037071583792567253
aF0.004240700975060463
aF0.0038611143827438354
aF0.0038611143827438354
aF0.002969218185171485
aF0.002179441275075078
aF0.0025416554417461157
aF0.00222199410200119
aF0.0024769112933427095
aF0.0019701989367604256
aF0.001959843561053276
aF0.0027695228345692158
aF0.002195505890995264
aF0.002888222225010395
aF0.0024912923108786345
aF0.003331185318529606
aF0.0021813525818288326
aF0.0024860878475010395
aF0.002250517252832651
aF0.003306102007627487
aF0.0033061017747968435
aF0.003306102007627487
aF0.0037272395566105843
aF0.0032335857395082712
aF0.0026743116322904825
aF0.0018410072661936283
aF0.0032338635064661503
aF0.0032338632736355066
aF0.0028084025252610445
aF0.0018024970777332783
aF0.0015806312439963222
aF0.001919349073432386
aF0.002221136586740613
aF0.0021449814084917307
aF0.0026986519806087017
aF0.0024392479099333286
aF0.001872844761237502
aF0.0013286981265991926
aF0.002283864188939333
aF0.0019259966211393476
aF0.002640470629557967
aF0.0017366476822644472
aF0.0021854413207620382
aF0.002378447912633419
aF0.003093449864536524
aF0.0029718969017267227
aF0.002971896668896079
aF0.0032654129900038242
aF0.002770117949694395
aF0.0030861967243254185
aF0.003086196491494775
aF0.004002393689006567
aF0.0030808676965534687
aF0.0034970417618751526
aF0.0022483905777335167
aF0.0024348709266632795
aF0.002341219689697027
aF0.002377430908381939
aF0.0027350843884050846
aF0.0030441121198236942
aF0.0030441121198236942
aF0.0030441118869930506
aF0.002629387192428112
aF0.0026293869595974684
aF0.0026293867267668247
aF0.003206240478903055
aF0.0037228832952678204
aF0.003917899448424578
aF0.0037923725321888924
aF0.003937141504138708
aF0.003937141969799995
aF0.003580506658181548
aF0.003580506658181548
aF0.0031398518476635218
aF0.002325436333194375
aF0.0019799445290118456
aF0.0010629082098603249
aF0.0013487277319654822
aF0.0012562889605760574
aF0.0012765725841745734
aF0.0016728837508708239
aF0.001280293450690806
aF0.002399835269898176
aF0.002399835269898176
aF0.0036838403902947903
aF0.0036838403902947903
aF0.0036838403902947903
aF0.0033819323871284723
aF0.0035817879252135754
aF0.0034978585317730904
aF0.003460034728050232
aF0.0036169851664453745
aF0.003117153886705637
aF0.003117153886705637
aF0.00241900235414505
aF0.0024190021213144064
aF0.0028177869971841574
aF0.0028177867643535137
aF0.003203266067430377
aF0.002326764166355133
aF0.002326764166355133
aF0.002257437678053975
aF0.002038754289969802
aF0.002335896249860525
aF0.0018774964846670628
aF0.0024653314612805843
aF0.002111833542585373
aF0.004283515270799398
aF0.002920042723417282
aF0.004157727584242821
aF0.0031317502725869417
aF0.003348899306729436
aF0.0032411350402981043
aF0.0032534629572182894
aF0.0032534627243876457
aF0.002929934300482273
aF0.003176901489496231
aF0.0031769012566655874
aF0.0027872733771800995
aF0.0014049368910491467
aF0.0011273865820840001
aF0.0008913397323340178
aF0.0007131823804229498
aF0.0006052824319340289
aF0.000575510784983635
aF0.0006546726217493415
aF0.0005327576072886586
aF0.0005327575490809977
aF0.0005327575490809977
aF0.0005327574908733368
aF0.0007271203212440014
aF0.0007271203212440014
aF0.0009126332006417215
aF0.001089279307052493
aF0.0014308439567685127
aF0.0014308439567685127
aF0.0015108229126781225
aF0.0015426981262862682
aF0.0015242566587403417
aF0.001456779194995761
aF0.0012636524625122547
aF0.0014131306670606136
aF0.0014131305506452918
aF0.001693299855105579
aF0.0011176831321790814
aF0.0008727479726076126
aF0.0011036049108952284
aF0.0011036047944799066
aF0.0009479527361690998
aF0.0008400577353313565
aF0.0008915599901229143
aF0.0007839820464141667
aF0.0007839819882065058
aF0.0012045351322740316
aF0.0012045350158587098
aF0.001204534899443388
aF0.0012045347830280662
aF0.0012045346666127443
aF0.0014001750387251377
aF0.001762616098858416
aF0.002316873287782073
aF0.0023168730549514294
aF0.0023813799489289522
aF0.002381380181759596
aF0.0022041674237698317
aF0.0022041676566004753
aF0.0019866256043314934
aF0.0013160870876163244
aF0.001102119917050004
aF0.0006924523622728884
aF0.0011470114113762975
aF0.0011470111785456538
aF0.0014150652568787336
aF0.0006472478271462023
aF0.0007497769547626376
aF0.0006979917525313795
aF0.0008709714747965336
aF0.0008392689051106572
aF0.0008141227881424129
aF0.0009566069347783923
aF0.0008163751917891204
aF0.001215348020195961
aF0.0007560952799394727
aF0.001243746024556458
aF0.0007615495705977082
aF0.0017702144104987383
aF0.0015092194080352783
aF0.0015092192916199565
aF0.001279287738725543
aF0.0011161074507981539
aF0.001116107334382832
aF0.0009122970513999462
aF0.0011388501152396202
aF0.0011388499988242984
aF0.0011388498824089766
aF0.0006831393693573773
aF0.0004941619117744267
aF0.0004941619699820876
aF0.0016242496203631163
aF0.001908347476273775
aF0.0016774890245869756
aF0.0015464286552742124
aF0.001532633090391755
aF0.0013669824693351984
aF0.0014385641552507877
aF0.0011839359067380428
aF0.0020639642607420683
aF0.0014691100222989917
aF0.0011912417830899358
aF0.00035729372757487
aF0.0006981564220041037
aF0.0011224397458136082
aF0.0011224397458136082
aF0.0008634437690488994
aF0.0008372965385206044
aF0.000804076436907053
aF0.0007443279610015452
aF0.0008569896453991532
aF0.0015134462155401707
aF0.0012341930996626616
aF0.0005480815307237208
aF8.216482092393562e-05
aF0.00013939823838882148
aF0.0003106221556663513
aF0.0003106221847701818
aF0.0003106221847701818
aF0.0004396800068207085
aF0.0004396800068207085
aF0.00013155763735994697
aF4.65844277641736e-05
aF8.696570876054466e-05
aF0.0004223773430567235
aF0.0005978422705084085
aF0.00011751618148991838
aF0.00013162528921384364
aF0.0001728006755001843
aF0.00025446718791499734
aF0.00046172679867595434
aF0.0002934550866484642
aF0.0002557744737714529
aF0.0003247890854254365
aF0.00012575379514601082
aF0.00015280254592653364
aF0.0002315947349416092
aF0.0003566605446394533
aF0.00022453574638348073
aF5.6109915021806955e-05
aF2.565501199569553e-05
aF0.00017839676002040505
aF0.00017839680367615074
aF0.00036691693821921945
aF0.0003232705348636955
aF0.00022778801212552935
aF0.00014304075739346445
aF5.3720330470241606e-05
aF4.261558206053451e-05
aF7.517809717683122e-05
aF0.00038868343108333647
aF1.474698365200311e-05
aF3.173397544742329e-08
aF1.4432221178140026e-05
aF0.00014528303290717304
aF0.00014528300380334258
aF0.00014528300380334258
aF8.845838601700962e-05
aF8.845837146509439e-05
aF0.00016016879817470908
aF0.00031110955751501024
aF0.00024706192198209465
aF0.00024706192198209465
aF0.00027869874611496925
aF0.00045477261301130056
aF0.0005369961727410555
aF0.0005369961145333946
aF0.0005369961145333946
aF0.0006201873766258359
aF0.0008563120500184596
aF0.0008014885825105011
aF0.0007980889058671892
aF0.0007980888476595283
aF0.0006327672163024545
aF0.0006327671580947936
aF0.0005409891018643975
aF0.0008358869235962629
aF0.0006430030334740877
aF0.0008526655146852136
aF0.00045942558790557086
aF0.0006293535698205233
aF0.0006293535698205233
aF0.0007721253205090761
aF0.0010605108691379428
aF0.0013622511178255081
aF0.0011902330443263054
aF0.0011901436373591423
aF0.0011497610248625278
aF0.0010718886042013764
aF0.0010718886042013764
aF0.0009080090094357729
aF0.00038762809708714485
aF0.0003003485326189548
aF0.0005603530444204807
aF0.0012346482835710049
aF0.0009765222202986479
aF0.0007640195544809103
aF0.0006118923192843795
aF0.00048004259588196874
aF0.0005048966850154102
aF0.0006035380065441132
aF0.0007691190112382174
aF0.0005786256515420973
aF0.0010135211050510406
aF0.0005854399059899151
aF0.0014906683936715126
aF0.0012525387573987246
aF0.001440160907804966
aF0.0014401606749743223
aF0.0015215766616165638
aF0.0015546667855232954
aF0.0015546666691079736
aF0.0014582553412765265
aF0.0016268522012978792
aF0.0011992274085059762
aF0.0014434118056669831
aF0.0009282009559683502
aF0.0014650195371359587
aF0.0009438588749617338
aF0.0014131821226328611
aF0.0010282768635079265
aF0.0011498938547447324
aF0.0010686761233955622
aF0.000999324838630855
aF0.0009993247222155333
aF0.0011828350834548473
aF0.0011828349670395255
aF0.0014609640929847956
aF0.0017740605399012566
aF0.002100389450788498
aF0.0027647370006889105
aF0.002764736767858267
aF0.002764736535027623
aF0.0030599404126405716
aF0.0030599404126405716
aF0.0033316281624138355
aF0.0033316276967525482
aF0.0033316276967525482
aF0.002588791074231267
aF0.0034148641861975193
aF0.0021827174350619316
aF0.0029424824751913548
aF0.0025892723351716995
aF0.002589271869510412
aF0.0024183583445847034
aF0.0024183583445847034
aF0.0024763774126768112
aF0.002662130631506443
aF0.00215254258364439
aF0.00215254258364439
aF0.002888220129534602
aF0.0021107615903019905
aF0.0028760284185409546
aF0.003271802794188261
aF0.004034683108329773
aF0.004746467340737581
aF0.005036838818341494
aF0.00487794354557991
aF0.005018704570829868
aF0.005185860674828291
aF0.004413829185068607
aF0.004687601700425148
aF0.004306269809603691
aF0.0043062688782811165
aF0.004306269343942404
aF0.003341884119436145
aF0.003341884119436145
aF0.003341883886605501
aF0.003341883886605501
aF0.003831807989627123
aF0.0038318077567964792
aF0.003809651592746377
aF0.0037056072615087032
aF0.003928628750145435
aF0.004285678267478943
aF0.003849920118227601
aF0.0038499205838888884
aF0.0038499203510582447
aF0.002976789604872465
aF0.002321912907063961
aF0.002563292160630226
aF0.0025632926262915134
aF0.0026483656838536263
aF0.0026483661495149136
aF0.0027733438182622194
aF0.0027733435854315758
aF0.0034667954314500093
aF0.003049104707315564
aF0.003049104940146208
aF0.003049104940146208
aF0.002323419786989689
aF0.0020642285235226154
aF0.0020642285235226154
aF0.0019989293068647385
aF0.0021440230775624514
aF0.001969199161976576
aF0.0019691986963152885
aF0.001691433135420084
aF0.0035821732599288225
aF0.003582173027098179
aF0.0035821725614368916
aF0.002526612486690283
aF0.00535266287624836
aF0.018006542697548866
aF0.013693921267986298
aF0.014985490590333939
aF0.05159216746687889
aF0.12645645439624786
aF0.20413848757743835
aF0.14054535329341888
aF0.08503317832946777
aF0.08237943798303604
aF0.08168689906597137
aF0.06486004590988159
aF0.047915104776620865
aF0.0438079833984375
aF0.049687206745147705
aF0.06646351516246796
aF0.09016359597444534
aF0.09016359597444534
aF0.07374618947505951
aF0.05635276436805725
aF0.04977520927786827
aF0.04943343251943588
aF0.04783178120851517
aF0.04268839210271835
aF0.04094572365283966
aF0.03979959711432457
aF0.03582137078046799
aF0.03440739959478378
aF0.03440739959478378
aF0.03302297741174698
aF0.03302297368645668
aF0.03109927475452423
aF0.029892943799495697
aF0.029675064608454704
aF0.029432125389575958
aF0.029010269790887833
aF0.029010269790887833
aF0.030015693977475166
aF0.03380579128861427
aF0.028376702219247818
aF0.02708081528544426
aF0.025890469551086426
aF0.027986399829387665
aF0.030668096616864204
aF0.02943466044962406
aF0.02943466044962406
aF0.030085977166891098
aF0.029535967856645584
aF0.0287132877856493
aF0.02767505869269371
aF0.031403373926877975
aF0.027411838993430138
aF0.027411838993430138
aF0.025099709630012512
aF0.028092462569475174
aF0.02975429967045784
aF0.028693823143839836
aF0.028289223089814186
aF0.028000058606266975
aF0.025850990787148476
aF0.025850992649793625
aF0.02790704183280468
aF0.03439540043473244
aF0.031563058495521545
aF0.026367230340838432
aF0.02526038885116577
aF0.029100440442562103
aF0.029877517372369766
aF0.031452298164367676
aF0.030675463378429413
aF0.030369957908988
aF0.03036995604634285
aF0.026928085833787918
aF0.03130646422505379
aF0.03538525849580765
aF0.03686967492103577
aF0.032625894993543625
aF0.030224356800317764
aF0.031189005821943283
aF0.03189636766910553
aF0.03229733556509018
aF0.032538071274757385
aF0.03205964341759682
aF0.03205964341759682
aF0.027112744748592377
aF0.030604589730501175
aF0.026739835739135742
aF0.03350810706615448
aF0.03215248882770538
aF0.03585130721330643
aF0.03482663631439209
aF0.034142427146434784
aF0.03414243087172508
aF0.034142427146434784
aF0.034599609673023224
aF0.03379979357123375
aF0.03488671034574509
aF0.033588144928216934
aF0.033588141202926636
aF0.03217461705207825
aF0.03217461705207825
aF0.033347927033901215
aF0.03529110923409462
aF0.03461921960115433
aF0.03461921587586403
aF0.03501783311367035
aF0.03397582098841667
aF0.0384933240711689
aF0.06422000378370285
aF0.04798055440187454
aF0.012922207824885845
aF0.0014682094333693385
aF0.02301587350666523
aF0.07228757441043854
aF0.032744474709033966
aF0.013628044165670872
aF0.027864329516887665
aF0.021471651270985603
aF0.0066654374822974205
aF0.00061506632482633
aF0.0006702499813400209
aF0.001499508391134441
aF0.004641097038984299
aF0.0106687992811203
aF0.009905898943543434
aF0.006959057413041592
aF0.004583802539855242
aF0.0063106464222073555
aF0.010929976589977741
aF0.007384230848401785
aF0.0025950968265533447
aF0.0010042840149253607
aF0.0018002050928771496
aF0.0024019998963922262
aF0.002687067026272416
aF0.0024834186770021915
aF0.002400945406407118
aF0.00206872820854187
aF0.0022379483561962843
aF0.001775507815182209
aF0.003067377721890807
aF0.003067377954721451
aF0.002263906877487898
aF0.0010971432784572244
aF0.0010971431620419025
aF0.0021783430129289627
aF0.0015204459195956588
aF0.0015107528306543827
aF0.002315887715667486
aF0.0017663480248302221
aF0.0006824692245572805
aF0.0002970694040413946
aF0.0007571770111098886
aF0.0025873032864183187
aF0.002992269117385149
aF0.0022829342633485794
aF0.0012456289259716868
aF0.0016754439566284418
aF0.0015671656001359224
aF0.0017701053293421865
aF0.0028798114508390427
aF0.0015631758142262697
aF0.0021137227304279804
aF0.0003352322382852435
aF0.002299341605976224
aF0.00043077123700641096
aF0.0022127353586256504
aF0.0004668309702537954
aF0.0009138964815065265
aF0.0007032147841528058
aF0.0007501155487261713
aF0.0008702513296157122
aF0.001208802219480276
aF0.0014650238445028663
aF0.0024869663175195456
aF0.0005318993935361505
aF0.0027309823781251907
aF0.0008419693913310766
aF0.003336489200592041
aF0.0016217990778386593
aF0.0026949855964630842
aF0.002374572679400444
aF0.0017935081850737333
aF0.0024824594147503376
aF0.00123853818513453
aF0.002614830620586872
aF0.0006158628966659307
aF0.0007925453246571124
aF0.0007925452664494514
aF0.0010277683613821864
aF0.0010277682449668646
aF0.0010277682449668646
aF0.000870042946189642
aF0.0007535534678027034
aF0.0006825837190262973
aF0.0005335084861144423
aF0.000418178882682696
aF0.0003661236842162907
aF0.0016277194954454899
aF0.000831649056635797
aF0.001976711442694068
aF0.0006928649381734431
aF0.0018164354842156172
aF0.0013707196339964867
aF0.001895714201964438
aF0.0015497567364946008
aF0.0014778055483475327
aF0.0016248393803834915
aF0.0010807085782289505
aF0.0009081122698262334
aF0.0009081122698262334
aF0.0009081122698262334
aF0.002093304181471467
aF0.0011872660834342241
aF0.0009768359595909715
aF0.000664116523694247
aF0.0006854617968201637
aF0.0006834957166574895
aF0.0006583550130017102
aF0.0007354576955549419
aF0.0010744796600192785
aF0.0005072196363471448
aF0.0005072196363471448
aF0.00021775616914965212
aF0.0003474351833574474
aF0.0004988576984032989
aF0.0002651466347742826
aF0.0002215027343481779
aF0.00022150274890009314
aF0.0005769010167568922
aF0.0004051275900565088
aF0.00043537435703910887
aF0.0011621426092460752
aF0.00031403067987412214
aF0.00044607860036194324
aF1.9544895621947944e-05
aF0.0006733930786140263
aF0.0006733930204063654
aF0.0013755796244367957
aF0.0003703570400830358
aF0.0003882467281073332
aF0.0003882467281073332
aF0.00021229263802524656
aF0.00021229262347333133
aF0.0007291242945939302
aF0.0009518825681880116
aF0.0012069287477061152
aF0.000581238535232842
aF0.0007288408232852817
aF0.001232815906405449
aF0.0016167869325727224
aF0.0014752002898603678
aF0.0016027261735871434
aF0.0011065819999203086
aF0.001032115425914526
aF0.000809442310128361
aF0.001027170568704605
aF0.001959072658792138
aF0.002305741421878338
aF0.0010490736458450556
aF0.0004527036799117923
aF0.0007751246448606253
aF0.001152666169218719
aF0.0018081448506563902
aF0.001177227939479053
aF0.001196923665702343
aF0.0017327801324427128
aF0.0007315553957596421
aF0.0018864094745367765
aF0.001077358960174024
aF0.006261330097913742
aF0.0023574032820761204
aF0.003909313585609198
aF0.0016043313080444932
aF0.0037541016936302185
aF0.0027956441044807434
aF0.003391628386452794
aF0.0037574234884232283
aF0.0032600830309093
aF0.002963125938549638
aF0.001568973995745182
aF0.0015689737629145384
aF0.003415195271372795
aF0.001834485912695527
aF0.0029239191208034754
aF0.0007808756199665368
aF0.0013591911410912871
aF0.0011186536867171526
aF0.0013348291395232081
aF0.0018478692509233952
aF0.0012076545972377062
aF0.003062804928049445
aF0.0006053393590264022
aF0.00312039814889431
aF0.00312039814889431
aF0.004876553080976009
aF0.004466106649488211
aF0.003942581359297037
aF0.003847674001008272
aF0.0038410585839301348
aF0.003726760158315301
aF0.003624878590926528
aF0.004686696920543909
aF0.004276096820831299
aF0.0034048103261739016
aF0.0008161666919477284
aF0.002295758342370391
aF0.0013236248632892966
aF0.002972002374008298
aF0.0010832909028977156
aF0.0013700322015210986
aF0.001398855005390942
aF0.0010179703822359443
aF0.0010179702658206224
aF0.00082786800339818
aF0.001320866052992642
aF0.0015888711204752326
aF0.0019114107126370072
aF0.0022660938557237387
aF0.0019344217143952847
aF0.002536227460950613
aF0.0022869829554110765
aF0.0026475496124476194
aF0.002647549379616976
aF0.0026722268667072058
aF0.0026210618671029806
aF0.002959569450467825
aF0.002683976199477911
aF0.002366973552852869
aF0.0014493560884147882
aF0.002087970497086644
aF0.002861784305423498
aF0.002479935297742486
aF0.0016580830560997128
aF0.0016580830560997128
aF0.00153992825653404
aF0.001641459995880723
aF0.0018463274464011192
aF0.0015828785253688693
aF0.0010669927578419447
aF0.0019537778571248055
aF0.0013283240841701627
aF0.002252771519124508
aF0.0019553257152438164
aF0.0021908865310251713
aF0.0020335630979388952
aF0.002489415928721428
aF0.0024267241824418306
aF0.0023879932705312967
aF0.002387993037700653
aF0.0020241597667336464
aF0.0020241597667336464
aF0.001748695969581604
aF0.0012041627196595073
aF0.0014848633436486125
aF0.0011999483685940504
aF0.0014692980330437422
aF0.0012342113768681884
aF0.0012342112604528666
aF0.0011425720294937491
aF0.001150158466771245
aF0.0011501583503559232
aF0.0015169582329690456
aF0.0017952730413526297
aF0.0014871626626700163
aF0.0014871625462546945
aF0.0014871625462546945
aF0.0017586214235052466
aF0.0015385585138574243
aF0.0014157014666125178
aF0.0014633566606789827
aF0.001463356427848339
aF0.0013856057776138186
aF0.001177641679532826
aF0.0010546462144702673
aF0.0007877058815211058
aF0.0009529177332296968
aF0.0004422627971507609
aF0.0002070440968964249
aF0.00032494490733370185
aF0.00032494490733370185
aF0.00032494490733370185
aF0.00013364505139179528
aF0.00010170381574425846
aF8.268516103271395e-05
aF7.579623343190178e-05
aF0.00024183405912481248
aF0.0005333531298674643
aF0.0005333530716598034
aF0.0009378298418596387
aF0.0009378297254443169
aF0.0015942301834002137
aF0.0013972669839859009
aF0.0021041433792561293
aF0.0017631188966333866
aF0.0017875321209430695
aF0.00205785920843482
aF0.0015451502986252308
aF0.001545150182209909
aF0.0013109224382787943
aF0.0013109223218634725
aF0.0013109223218634725
aF0.0010448703542351723
aF0.0006375446682795882
aF0.0005104091833345592
aF0.0005104092415422201
aF0.000497935398016125
aF0.000497935339808464
aF0.0011034960625693202
aF0.0005087789613753557
aF0.0011569581693038344
aF0.0014369047712534666
aF0.0020551704801619053
aF0.0012877876870334148
aF0.0011488882591947913
aF0.0012223155936226249
aF0.0015390705084428191
aF0.001490150112658739
aF0.0014596075052395463
aF0.0015674927271902561
aF0.0017757639288902283
aF0.0020699624437838793
aF0.001740792184136808
aF0.002082082675769925
aF0.0014531782362610102
aF0.0014531782362610102
aF0.0012687189737334847
aF0.0011185939656570554
aF0.0011095814406871796
aF0.0010629181051626801
aF0.0010629181051626801
aF0.0014331763377413154
aF0.0017095080111175776
aF0.0008934473153203726
aF0.00048739492194727063
aF0.0013946013059467077
aF0.0019863955676555634
aF0.0019863955676555634
aF0.0016061190981417894
aF0.0015376948285847902
aF0.0016719240229576826
aF0.0016719242557883263
aF0.0015886393375694752
aF0.0022009846288710833
aF0.0016931790160015225
aF0.002306300448253751
aF0.000645067251753062
aF0.0011009930167347193
aF0.0013710848288610578
aF0.0022972971200942993
aF0.0012988211819902062
aF0.0012988211819902062
aF0.0012567373923957348
aF0.0012255475157871842
aF0.0011838892241939902
aF0.0012945174239575863
aF0.002287516836076975
aF0.0026561543345451355
aF0.0012909362558275461
aF0.0010311908554285765
aF0.0012676764745265245
aF0.0014950179029256105
aF0.0014950179029256105
aF0.0012644841335713863
aF0.0012644841335713863
aF0.0014228173531591892
aF0.0006555143045261502
aF0.0007934488239698112
aF0.0009978791931644082
aF0.002208012854680419
aF0.0012523046461865306
aF0.0012523046461865306
aF0.0010549451690167189
aF0.0018175756558775902
aF0.0022506138775497675
aF0.001979109365493059
aF0.002010116120800376
aF0.002552963327616453
aF0.0015840197447687387
aF0.002126900013536215
aF0.0017993004294112325
aF0.004331792239099741
aF0.0033877985551953316
aF0.0023325500078499317
aF0.0019183832919225097
aF0.002538003260269761
aF0.002844079164788127
aF0.003219921374693513
aF0.00331010646186769
aF0.0033101062290370464
aF0.003022231627255678
aF0.002383569488301873
aF0.002383569488301873
aF0.0020237357821315527
aF0.0023898035287857056
aF0.0023898035287857056
aF0.0015736899804323912
aF0.0015736897476017475
aF0.001811779453419149
aF0.0021495488472282887
aF0.0020970285404473543
aF0.002097028773277998
aF0.0022595818154513836
aF0.0014765358064323664
aF0.0010135902557522058
aF0.0011920776451006532
aF0.0017252780962735415
aF0.0017252780962735415
aF0.0004946038825437427
aF0.0004946038825437427
aF0.0004946038243360817
aF0.0009104718919843435
aF0.0006922443280927837
aF0.0006922442116774619
aF0.0008091881754808128
aF0.0004969832953065634
aF0.0006814074004068971
aF0.0003356939705554396
aF0.0007722835289314389
aF0.0005760318599641323
aF0.0010121985105797648
aF0.0005931798950769007
aF0.0005931798368692398
aF0.00041040393989533186
aF0.0005126153118908405
aF0.0005126153118908405
aF0.0005365281249396503
aF0.00046782067511230707
aF0.0003896206326317042
aF0.0006457456038333476
aF0.0010754126124083996
aF0.002344305394217372
aF0.0016712532378733158
aF0.0014151170616969466
aF0.0014151169452816248
aF0.0015534223057329655
aF0.0016472009010612965
aF0.001653315033763647
aF0.0015536340652033687
aF0.001932402141392231
aF0.0014310533879324794
aF0.0020201783627271652
aF0.001111970515921712
aF0.0023936727084219456
aF0.0014460592065006495
aF0.001963771879673004
aF0.001963771879673004
aF0.0025631915777921677
aF0.002563191344961524
aF0.0027356657665222883
aF0.0027758998330682516
aF0.0027758993674069643
aF0.0033364896662533283
aF0.003336489200592041
aF0.003785213455557823
aF0.0028847299981862307
aF0.0033052321523427963
aF0.002928393892943859
aF0.003235406940802932
aF0.002834188286215067
aF0.0030252777505666018
aF0.0030575816053897142
aF0.0027231972198933363
aF0.0031212628819048405
aF0.002817942760884762
aF0.004023393150418997
aF0.0031090867705643177
aF0.004040061496198177
aF0.004040061496198177
aF0.004470617510378361
aF0.004470617510378361
aF0.0044706170447170734
aF0.00476937647908926
aF0.0047693755477666855
aF0.0046834563836455345
aF0.0046834563836455345
aF0.004087911918759346
aF0.0044713993556797504
aF0.0035862361546605825
aF0.005090686492621899
aF0.0035597681999206543
aF0.004496640991419554
aF0.004496640991419554
aF0.004862097091972828
aF0.005143058020621538
aF0.0048807295970618725
aF0.004880729131400585
aF0.004880729131400585
aF0.004584436770528555
aF0.00498806219547987
aF0.005501533392816782
aF0.005501534324139357
aF0.005501533858478069
aF0.004976542666554451
aF0.0045546069741249084
aF0.004874727223068476
aF0.004874726757407188
aF0.004962632432579994
aF0.0049626328982412815
aF0.0049626328982412815
aF0.0049626328982412815
aF0.004962631966918707
aF0.00447939382866025
aF0.0035150141920894384
aF0.003993213642388582
aF0.003111187368631363
aF0.0031111871358007193
aF0.0031111871358007193
aF0.003111186670139432
aF0.003200537757948041
aF0.0032840007916092873
aF0.003976947162300348
aF0.003976946696639061
aF0.0035476030316203833
aF0.00310765253379941
aF0.003558200551196933
aF0.004018601030111313
aF0.004456893540918827
aF0.00445689307525754
aF0.004733863286674023
aF0.004913351032882929
aF0.004982897080481052
aF0.005058653187006712
aF0.005304986145347357
aF0.004935710225254297
aF0.00493570975959301
aF0.004935708828270435
aF0.005498334765434265
aF0.006082502193748951
aF0.005547879263758659
aF0.004743549507111311
aF0.004501760005950928
aF0.004924638196825981
aF0.005076923407614231
aF0.005131947807967663
aF0.005908058024942875
aF0.005110809579491615
aF0.003852985566481948
aF0.0026663269381970167
aF0.004471266642212868
aF0.00557511392980814
aF0.006143612787127495
aF0.003949890844523907
aF0.003484423505142331
aF0.0037192830350250006
aF0.003930199425667524
aF0.004030900076031685
aF0.004669060930609703
aF0.00538166519254446
aF0.00447491742670536
aF0.0024143774062395096
aF0.0014334755251184106
aF0.002457250840961933
aF0.002457250375300646
aF0.0018342324765399098
aF0.0010972146410495043
aF0.0011510838521644473
aF0.0009660054929554462
aF0.0007398401503451169
aF0.0008386431145481765
aF0.0017275316640734673
aF0.002057746285572648
aF0.001410374534316361
aF0.0007095088949427009
aF0.0010863179340958595
aF0.0012774909846484661
aF0.0014428949216380715
aF0.0012601192574948072
aF0.0011652878019958735
aF0.0015129598323255777
aF0.0005263096536509693
aF0.0005263095954433084
aF0.0006870785146020353
aF0.0014163090381771326
aF0.00089088617824018
aF0.0005153316305950284
aF0.00023823177616577595
aF0.00030511620570905507
aF0.00043584496597759426
aF0.00038071462768130004
aF0.0011863805120810866
aF0.0017599783604964614
aF0.0014474316267296672
aF0.000547432922758162
aF0.0008826965931802988
aF0.0007382708718068898
aF0.000960657955147326
aF0.0008415287593379617
aF0.001032720203511417
aF0.001032720087096095
aF0.00040332035860046744
aF0.00029327618540264666
aF0.0004247063188813627
aF0.0005989311030134559
aF0.0008038557134568691
aF0.00022358662681654096
aF0.00022358661226462573
aF0.00034782616421580315
aF0.0005289994878694415
aF0.0004196981026325375
aF0.0004857451422140002
aF0.0009775739163160324
aF0.0005682557239197195
aF0.00014954523066990077
aF0.00014954521611798555
aF7.455093145836145e-05
aF0.0005166416522115469
aF0.00037826309562660754
aF0.00029796623857691884
aF0.0002952168579213321
aF0.0002454830100759864
aF0.00039142087916843593
aF0.0002062144922092557
aF0.0005966100725345314
aF0.00042271704296581447
aF0.0008033490739762783
aF0.0004468269762583077
aF0.0005853917682543397
aF0.0004808760713785887
aF0.00048087610048241913
aF0.0004928307607769966
aF0.0004171546606812626
aF0.0004109422443434596
aF0.00045877532102167606
aF0.0009003701852634549
aF0.0009003700688481331
aF0.0009003699524328113
aF0.0006853207014501095
aF0.0008819438517093658
aF0.0007173964404501021
aF0.0007173963822424412
aF0.0008883417467586696
aF0.0008956837700679898
aF0.0006744335405528545
aF0.0007691796636208892
aF0.0004416849697008729
aF0.0007042281213216484
aF0.0005294302245602012
aF0.0011937974486500025
aF0.0007188497693277895
aF0.0009253235766664147
aF0.00048770103603601456
aF0.0006685290136374533
aF0.000580641848500818
aF0.000580641848500818
aF0.0008079553954303265
aF0.0008079553372226655
aF0.0010329334763810039
aF0.0007971749873831868
aF0.0007971749873831868
aF0.0007971749873831868
aF0.0014157729456201196
aF0.0010694717057049274
aF0.0016428634990006685
aF0.001435675541870296
aF0.0015598224708810449
aF0.0015819186810404062
aF0.0015526628121733665
aF0.0014085292350500822
aF0.0015025597531348467
aF0.0013385382480919361
aF0.0013385382480919361
aF0.0007212278433144093
aF0.0005465978756546974
aF8.219622395699844e-05
aF0.00027281613438390195
aF1.2038492513966048e-06
aF7.276846736203879e-05
aF2.3437187337549403e-05
aF1.536454146844335e-05
aF3.330446270410903e-05
aF3.330446270410903e-05
aF3.330446270410903e-05
aF7.924449164420366e-06
aF2.60698516285629e-06
aF2.5449920940445736e-05
aF7.486747927032411e-05
aF0.00014742909115739167
aF0.00014742909115739167
aF0.0002204373013228178
aF0.0004125942359678447
aF0.0005250731483101845
aF0.00044980074744671583
aF0.0005460137617774308
aF0.0005460137035697699
aF0.000546013645362109
aF0.0004990948946215212
aF0.00043896661372855306
aF0.0003311719628982246
aF0.0004056292527820915
aF0.0004056292527820915
aF0.0002782141091302037
aF0.0010248906910419464
aF0.0005894943606108427
aF0.0009956585709005594
aF0.0005183537723496556
aF0.0005183537723496556
aF0.0005220604944042861
aF0.00046020495938137174
aF0.0006953321862965822
aF0.0003956437867600471
aF0.000956609845161438
aF0.0009566096123307943
aF0.0009566096123307943
aF0.0004649265029001981
aF0.0005627993959933519
aF0.0007655760855413973
aF0.0009918392170220613
aF0.0010935941245406866
aF0.0010560783557593822
aF0.0011159387649968266
aF0.0011159387649968266
aF0.0015588750829920173
aF0.0010404458735138178
aF0.0010404458735138178
aF0.001040445757098496
aF0.0015735584311187267
aF0.001573558314703405
aF0.002058514393866062
aF0.0015825486043468118
aF0.0017101854318752885
aF0.0017151014180853963
aF0.0015684824902564287
aF0.002556875115260482
aF0.002910998184233904
aF0.0029109979514032602
aF0.0033477433025836945
aF0.0037965276278555393
aF0.0033973914105445147
aF0.003719171043485403
aF0.0042549376375973225
aF0.004450328182429075
aF0.004450327251106501
aF0.004450327251106501
aF0.004450327251106501
aF0.004777329042553902
aF0.004777329973876476
aF0.004777329508215189
aF0.003301185555756092
aF0.0042496174573898315
aF0.0033721583895385265
aF0.004117731936275959
aF0.0033206359948962927
aF0.003320635762065649
aF0.003398190252482891
aF0.0029821000061929226
aF0.003714862745255232
aF0.003018619492650032
aF0.005310392938554287
aF0.0037458857987076044
aF0.004751181695610285
aF0.004271749407052994
aF0.004271749407052994
aF0.0042717489413917065
aF0.004461038392037153
aF0.004461038392037153
aF0.004410832654684782
aF0.004410832189023495
aF0.003889359999448061
aF0.004239029251039028
aF0.0038094359915703535
aF0.0038094352930784225
aF0.0029059182852506638
aF0.00290591805242002
aF0.002555262763053179
aF0.002555262763053179
aF0.0022475202567875385
aF0.002247520023956895
aF0.002332418691366911
aF0.0023324182257056236
aF0.0026176548562943935
aF0.00299187027849257
aF0.00299187027849257
aF0.004936637822538614
aF0.0039643398486077785
aF0.004807989578694105
aF0.004151554312556982
aF0.004575205035507679
aF0.004575204569846392
aF0.004575205035507679
aF0.004754939116537571
aF0.00417714100331068
aF0.004177140537649393
aF0.003354335203766823
aF0.003354334970936179
aF0.003354334970936179
aF0.002928132191300392
aF0.0025727609172463417
aF0.002083555795252323
aF0.002230942016467452
aF0.0021757374051958323
aF0.0022470795083791018
aF0.0024400155525654554
aF0.0021694113966077566
aF0.0018704578978940845
aF0.0015639080666005611
aF0.0015639079501852393
aF0.0018827631138265133
aF0.0025587149430066347
aF0.0022556129842996597
aF0.0022556129842996597
aF0.002255612751469016
aF0.002306033857166767
aF0.0023060343228280544
aF0.0024508696515113115
aF0.0022196087520569563
aF0.0019485093653202057
aF0.0022711597848683596
aF0.0015980857424438
aF0.0026708655059337616
aF0.0026708655059337616
aF0.0034092124551534653
aF0.002813554834574461
aF0.0028135543689131737
aF0.0027324433904141188
aF0.0026507293805480003
aF0.0028337740805000067
aF0.002320969710126519
aF0.002632929477840662
aF0.002271801931783557
aF0.0030727856792509556
aF0.0035153720527887344
aF0.0027295895852148533
aF0.0021893444936722517
aF0.0028041431214660406
aF0.0029754587449133396
aF0.003352875355631113
aF0.0033213840797543526
aF0.003185311332345009
aF0.003185311332345009
aF0.001825680723413825
aF0.0013328325003385544
aF0.001758204074576497
aF0.0014813472516834736
aF0.001205338048748672
aF0.0003645289980340749
aF0.00013545544061344117
aF0.0003404905437491834
aF0.000819628476165235
aF0.0004311606753617525
aF0.00043512313277460635
aF0.0006686690030619502
aF0.00015872542280703783
aF0.00015872539370320737
aF0.0001587254082551226
aF0.0007458251202479005
aF0.0007458250038325787
aF0.0002714954607654363
aF0.00013299219426698983
aF0.00028452969854697585
aF0.000819868640974164
aF0.001701845321804285
aF0.0011468956945464015
aF0.0010568297002464533
aF0.0011243404587730765
aF0.0007892579887993634
aF0.0007255756063386798
aF0.0008410802111029625
aF0.0012512945104390383
aF0.0010013558203354478
aF0.00039809205918572843
aF2.817648055497557e-05
aF0.0002353186282562092
aF0.00035247235791757703
aF0.00047906709369271994
aF0.0002805194235406816
aF0.0003697650390677154
aF0.00021776653011329472
aF0.00013569698785431683
aF0.0001847173843998462
aF0.0005745200905948877
aF0.0012716013006865978
aF0.00078695168485865
aF0.0007869516266509891
aF0.0007869515102356672
aF0.0012494551483541727
aF0.0014079776592552662
aF0.001317170332185924
aF0.0014500000979751348
aF0.0011890237219631672
aF0.0007859139586798847
aF0.0006395006203092635
aF0.0008095823577605188
aF0.001698531792499125
aF0.0014003246324136853
aF0.0006604886730201542
aF0.0008689179085195065
aF0.0013331340160220861
aF0.0018430149648338556
aF0.0016287388280034065
aF0.0013815241400152445
aF0.0015224296366795897
aF0.0013650748878717422
aF0.00102053873706609
aF0.0007006265223026276
aF0.00161317631136626
aF0.0022962691728025675
aF0.0019413556437939405
aF0.001643511699512601
aF0.0018941422458738089
aF0.002635390032082796
aF0.0031186873093247414
aF0.0028324713930487633
aF0.002843637252226472
aF0.0029930355958640575
aF0.0023444509133696556
aF0.0023444511462002993
aF0.0020422241650521755
aF0.0023882470559328794
aF0.002388246590271592
aF0.0031980816274881363
aF0.002812686376273632
aF0.0025193660985678434
aF0.0029727283399552107
aF0.0029727283399552107
aF0.0029371415730565786
aF0.002937141340225935
aF0.0029371411073952913
aF0.0024241204373538494
aF0.0024241204373538494
aF0.002791545819491148
aF0.0027915455866605043
aF0.0023981952108442783
aF0.0017602350562810898
aF0.001345834811218083
aF0.0014726694207638502
aF0.0014197385171428323
aF0.0014197385171428323
aF0.0014197384007275105
aF0.0027092192322015762
aF0.0027092192322015762
aF0.0010633341735228896
aF0.0010633342899382114
aF0.0010633341735228896
aF0.002107643987983465
aF0.001273006433621049
aF0.0012075816048309207
aF0.001536987954750657
aF0.0010469495318830013
aF0.0007641423726454377
aF0.000764142198022455
aF0.0017653018003329635
aF0.002481888746842742
aF0.0024818885140120983
aF0.0011361062061041594
aF0.0012906411429867148
aF0.001744588022120297
aF0.0024781504180282354
aF0.002144739730283618
aF0.002675879979506135
aF0.002675879979506135
aF0.001562108169309795
aF0.001088900724425912
aF0.0019445099169388413
aF0.0035669133067131042
aF0.0035669137723743916
aF0.002187016885727644
aF0.0016825421480461955
aF0.001738541992381215
aF0.0018331963801756501
aF0.0018588161328807473
aF0.0021735033951699734
aF0.0027603248599916697
aF0.0027603250928223133
aF0.0016769327921792865
aF0.002010813681408763
aF0.0023553313221782446
aF0.003048339858651161
aF0.003048339392989874
aF0.0024132365360856056
aF0.002413236303254962
aF0.0022422040347009897
aF0.0021500475704669952
aF0.0021500475704669952
aF0.0027009996119886637
aF0.0023511406034231186
aF0.0013802694156765938
aF0.0006471010856330395
aF0.0010961428051814437
aF0.0019381326856091619
aF0.002240188419818878
aF0.001607542741112411
aF0.0014890034217387438
aF0.0014536111848428845
aF0.0012998140882700682
aF0.0012362335110083222
aF0.001949612982571125
aF0.0022608742583543062
aF0.0026376452296972275
aF0.0010150086600333452
aF0.0010150085436180234
aF0.0012347777374088764
aF0.0022382112219929695
aF0.0012921974994242191
aF0.0013149947626516223
aF0.0017826404655352235
aF0.0008499014656990767
aF0.0008499013492837548
aF0.0010608796728774905
aF0.001944812829606235
aF0.0019448124803602695
aF0.0026477850042283535
aF0.0017772333230823278
aF0.0016142954118549824
aF0.0016997407656162977
aF0.0017953815404325724
aF0.0019579504150897264
aF0.00264425715431571
aF0.0026442573871463537
aF0.0026442573871463537
aF0.002257822547107935
aF0.002634082455188036
aF0.0026340819895267487
aF0.0023550731129944324
aF0.002355073345825076
aF0.002279978711158037
aF0.002279978711158037
aF0.0028195083141326904
aF0.002263055182993412
aF0.0019668247550725937
aF0.0016578888753429055
aF0.002349876333028078
aF0.0023498765658587217
aF0.0017187671037390828
aF0.001310022664256394
aF0.0014348230324685574
aF0.0016300840070471168
aF0.0016300841234624386
aF0.0016300841234624386
aF0.0017607405316084623
aF0.0012454813113436103
aF0.0010750875808298588
aF0.0008873490151017904
aF0.0011099315015599132
aF0.0011099315015599132
aF0.0011099315015599132
aF0.00027985870838165283
aF0.00027985870838165283
aF0.0005057211383245885
aF0.0005057210801169276
aF0.0005057210219092667
aF0.0006602886714972556
aF0.00044171983608976007
aF0.0002754628658294678
aF0.00016765648615546525
aF0.0002622819447424263
aF0.0005257555167190731
aF0.000717504764907062
aF0.00023114682699088007
aF5.0637023377930745e-05
aF6.574550207005814e-05
aF0.00015640434867236763
aF0.0001564043341204524
aF0.00019046178204007447
aF0.0005650206585414708
aF0.0005650206585414708
aF7.18509909347631e-05
aF3.297874718555249e-05
aF0.0001196807497763075
aF0.00043733662459999323
aF0.0003220663929823786
aF0.00024689960991963744
aF0.00031379799474962056
aF0.00012596546730492264
aF0.0001472300209570676
aF0.00014723000640515238
aF0.00019631728355307132
aF0.00010162249964196235
aF9.002394654089585e-05
aF0.00024427694734185934
aF0.00033407588489353657
aF0.00024302932433784008
aF0.00024302932433784008
aF0.00024302930978592485
aF0.000110265078546945
aF0.00011026507127098739
aF0.00045219139428809285
aF0.0006336127989925444
aF0.00011597565026022494
aF7.809462840668857e-05
aF8.857286593411118e-05
aF6.395015225280076e-05
aF7.72399507695809e-05
aF0.00022606122365687042
aF0.000708756095264107
aF0.00022910059487912804
aF8.62176893861033e-05
aF9.960870374925435e-05
aF0.00012852789950557053
aF0.00012852789950557053
aF0.0001743174361763522
aF0.0003699003136716783
aF0.00015781841648276895
aF8.381195220863447e-05
aF1.910751780087594e-05
aF4.597009319695644e-05
aF0.00011139708658447489
aF0.00011139708658447489
aF0.00011139707203255966
aF0.00019545354007277638
aF0.0004245007294230163
aF0.0005615411209873855
aF0.0004572959733195603
aF0.0004478516639210284
aF0.0005460191168822348
aF0.00024280688376165926
aF0.00017638172721490264
aF9.151268750429153e-05
aF0.00013754323299508542
aF0.00013754323299508542
aF0.00037318331305868924
aF0.00013325356121640652
aF0.0001332535466644913
aF0.00033689208794385195
aF0.0008142513688653708
aF0.0004271228681318462
aF0.00042712283902801573
aF0.0004402842605486512
aF0.0004060713981743902
aF0.00040607136907055974
aF0.00040607142727822065
aF0.0009258679929189384
aF0.0007197659579105675
aF0.0007197658414952457
aF0.00052646518452093
aF0.0003754314675461501
aF0.0005042459815740585
aF0.00033947278279811144
aF0.000369712186511606
aF0.0003784529399126768
aF0.0003784528817050159
aF0.0003784528817050159
aF0.0003784528817050159
aF0.00037845296901650727
aF0.0005451108445413411
aF0.0007395939901471138
aF0.0009484014008194208
aF0.000505687901750207
aF0.000825556693598628
aF0.0008255565771833062
aF0.0011084431316703558
aF0.0010457359021529555
aF0.0010687346803024411
aF0.0011092411587014794
aF0.0010042742360383272
aF0.0007715910323895514
aF0.0011024681152775884
aF0.0008841513190418482
aF0.0013962301891297102
aF0.0006598641630262136
aF0.0008624293841421604
aF0.0005406711716204882
aF0.0005406709969975054
aF0.0005042738048359752
aF0.0005042738630436361
aF0.0007631691405549645
aF0.0009707199060358107
aF0.001830254215747118
aF0.002175836591050029
aF0.0029066302813589573
aF0.0036568529903888702
aF0.004000371787697077
aF0.004273185506463051
aF0.0042731850408017635
aF0.0042731850408017635
aF0.00419018417596817
aF0.004401760175824165
aF0.0035169681068509817
aF0.0038747794460505247
aF0.003052542684599757
aF0.0022723686415702105
aF0.0015884180320426822
aF0.0019043406937271357
aF0.0013684644363820553
aF0.0011976435780525208
aF0.0010579071240499616
aF0.0010579072404652834
aF0.0013739420101046562
aF0.0007930338615551591
aF0.0012246583355590701
aF0.0015087299980223179
aF0.0012219182681292295
aF0.0014915599022060633
aF0.0014915596693754196
aF0.0014915596693754196
aF0.001810767105780542
aF0.0017137485556304455
aF0.001726180431433022
aF0.0017261803150177002
aF0.0016022553900256753
aF0.001436025369912386
aF0.0014360251370817423
aF0.0014360251370817423
aF0.0017387097468599677
aF0.0017387093976140022
aF0.0014434594195336103
aF0.001015582587569952
aF0.0008978075347840786
aF0.0009570418042130768
aF0.000957041687797755
aF0.0010239353869110346
aF0.0010239352704957128
aF0.0012292367173358798
aF0.0009891437366604805
aF0.0015361107653006911
aF0.0007640423718839884
aF0.0007640422554686666
aF0.0006185914389789104
aF0.0008556043612770736
aF0.0009694721666164696
aF0.0009139464818872511
aF0.0009139464818872511
aF0.0008035089704208076
aF0.0007663096766918898
aF0.0007366816280409694
aF0.0008210800006054342
aF0.0005849929875694215
aF0.0003896025591529906
aF0.0003896025591529906
aF0.00019463986973278224
aF0.00019463988428469747
aF0.0001946398988366127
aF0.0001946398988366127
aF0.00010206716251559556
aF0.00010206714796368033
aF0.00010206714796368033
aF0.00010206714068772271
aF0.0001020671334117651
aF0.0001020671334117651
aF0.0001344800111837685
aF0.000215897845919244
aF0.00021589781681541353
aF0.0005064088618382812
aF0.00022562802769243717
aF0.00033614097628742456
aF0.00024791096802800894
aF0.00039808746078051627
aF0.0003980874316766858
aF0.00039808740257285535
aF0.0004057985497638583
aF0.0004395589348860085
aF0.0003666705742944032
aF0.00036667054519057274
aF0.0001458882907172665
aF0.00030773167964071035
aF5.9836685977643356e-05
aF0.00012317571963649243
aF4.227500085107749e-06
aF1.7434787878300995e-05
aF5.9889851399930194e-05
aF9.365843652631156e-06
aF1.3451974155032076e-05
aF0.00010083511006087065
aF0.00010083508095704019
aF6.484221376013011e-05
aF7.561903476016596e-05
aF8.84188266354613e-05
aF6.940498860785738e-05
aF7.131361053325236e-05
aF7.131361053325236e-05
aF6.928368384251371e-05
aF0.0001226364547619596
aF0.0002602305612526834
aF0.0004725141334347427
aF0.0007447504322044551
aF0.0010580404195934534
aF0.0012090716045349836
aF0.001478937454521656
aF0.0014789375709369779
aF0.0014789373381063342
aF0.0015567481750622392
aF0.0017386318650096655
aF0.001283569261431694
aF0.0018288691062480211
aF0.0007556351483799517
aF0.0007556350319646299
aF0.0004017774772364646
aF0.0002902771229855716
aF0.00023667930508963764
aF0.0002591862285044044
aF0.0003100114408880472
aF0.00023844341922085732
aF0.0004639535036403686
aF0.0006406006286852062
aF0.0008536106906831264
aF0.0006495576235465705
aF0.0010419517057016492
aF0.0010419515892863274
aF0.0009171622223220766
aF0.0008814997272565961
aF0.000861216860357672
aF0.0009164580842480063
aF0.0006727380678057671
aF0.0012623287038877606
aF0.0008251502877101302
aF0.0006268753204494715
aF0.0002984825405292213
aF0.0006275182822719216
aF0.0010564851108938456
aF0.001290778280235827
aF0.0015133500564843416
aF0.0013484829105436802
aF0.0014441999373957515
aF0.0014348874101415277
aF0.0013481592759490013
aF0.0016923421062529087
aF0.0010474149603396654
aF0.0015332874609157443
aF0.0009946906939148903
aF0.0018713859608396888
aF0.0010325496550649405
aF0.0017752941930666566
aF0.0017752940766513348
aF0.002446675207465887
aF0.002446675207465887
aF0.002446675207465887
aF0.00245387083850801
aF0.0025483875069767237
aF0.0021995846182107925
aF0.00180682388599962
aF0.0020573490764945745
aF0.0010303652379661798
aF0.0008157544652931392
aF0.0001854457805166021
aF0.00018544579506851733
aF9.476294508203864e-05
aF9.476294508203864e-05
aF9.858478733804077e-05
aF1.5561168765998445e-05
aF0.00020732160191982985
aF4.3539374019019306e-05
aF0.00020136118109803647
aF6.0455844504758716e-05
aF0.00010229315375909209
aF7.670928607694805e-05
aF8.426362182945013e-05
aF0.00010379650484537706
aF0.00013395196583587676
aF0.00012579983740579337
aF0.00012749804591294378
aF0.0001340108719887212
aF0.0001340108719887212
aF0.00013401085743680596
aF3.793062933254987e-05
aF3.793062569457106e-05
aF7.627674494870007e-05
aF5.577752381213941e-05
aF5.577752381213941e-05
aF5.57775201741606e-05
aF3.331470361445099e-05
aF6.715709605487064e-05
aF3.013667810591869e-05
aF2.011789911193773e-05
aF2.1267595002427697e-05
aF2.906678128056228e-05
aF2.718595897022169e-05
aF2.718595351325348e-05
aF5.388473073253408e-05
aF3.8856753235450014e-05
aF7.401707989629358e-05
aF5.510514893103391e-05
aF5.51051452930551e-05
aF5.510513801709749e-05
aF3.8814872823422775e-05
aF3.881486918544397e-05
aF5.1615013944683596e-05
aF5.161500666872598e-05
aF6.66015112074092e-05
aF0.00015674594033043832
aF0.00022877493756823242
aF0.000556530081667006
aF0.0004481724463403225
aF0.000517581298481673
aF0.0005175813566893339
aF0.0005672479746863246
aF0.0005754793528467417
aF0.000499103800393641
aF0.0007134559564292431
aa.